
ctarget：     文件格式 elf64-x86-64


Disassembly of section .init:

0000000000400bb0 <_init>:
  400bb0:	48 83 ec 08          	sub    $0x8,%rsp
  400bb4:	48 8b 05 3d 34 20 00 	mov    0x20343d(%rip),%rax        # 603ff8 <__gmon_start__>
  400bbb:	48 85 c0             	test   %rax,%rax
  400bbe:	74 02                	je     400bc2 <_init+0x12>
  400bc0:	ff d0                	callq  *%rax
  400bc2:	48 83 c4 08          	add    $0x8,%rsp
  400bc6:	c3                   	retq   

Disassembly of section .plt:

0000000000400bd0 <.plt>:
  400bd0:	ff 35 32 34 20 00    	pushq  0x203432(%rip)        # 604008 <_GLOBAL_OFFSET_TABLE_+0x8>
  400bd6:	ff 25 34 34 20 00    	jmpq   *0x203434(%rip)        # 604010 <_GLOBAL_OFFSET_TABLE_+0x10>
  400bdc:	0f 1f 40 00          	nopl   0x0(%rax)

0000000000400be0 <strcasecmp@plt>:
  400be0:	ff 25 32 34 20 00    	jmpq   *0x203432(%rip)        # 604018 <strcasecmp@GLIBC_2.2.5>
  400be6:	68 00 00 00 00       	pushq  $0x0
  400beb:	e9 e0 ff ff ff       	jmpq   400bd0 <.plt>

0000000000400bf0 <__errno_location@plt>:
  400bf0:	ff 25 2a 34 20 00    	jmpq   *0x20342a(%rip)        # 604020 <__errno_location@GLIBC_2.2.5>
  400bf6:	68 01 00 00 00       	pushq  $0x1
  400bfb:	e9 d0 ff ff ff       	jmpq   400bd0 <.plt>

0000000000400c00 <srandom@plt>:
  400c00:	ff 25 22 34 20 00    	jmpq   *0x203422(%rip)        # 604028 <srandom@GLIBC_2.2.5>
  400c06:	68 02 00 00 00       	pushq  $0x2
  400c0b:	e9 c0 ff ff ff       	jmpq   400bd0 <.plt>

0000000000400c10 <strncmp@plt>:
  400c10:	ff 25 1a 34 20 00    	jmpq   *0x20341a(%rip)        # 604030 <strncmp@GLIBC_2.2.5>
  400c16:	68 03 00 00 00       	pushq  $0x3
  400c1b:	e9 b0 ff ff ff       	jmpq   400bd0 <.plt>

0000000000400c20 <strcpy@plt>:
  400c20:	ff 25 12 34 20 00    	jmpq   *0x203412(%rip)        # 604038 <strcpy@GLIBC_2.2.5>
  400c26:	68 04 00 00 00       	pushq  $0x4
  400c2b:	e9 a0 ff ff ff       	jmpq   400bd0 <.plt>

0000000000400c30 <puts@plt>:
  400c30:	ff 25 0a 34 20 00    	jmpq   *0x20340a(%rip)        # 604040 <puts@GLIBC_2.2.5>
  400c36:	68 05 00 00 00       	pushq  $0x5
  400c3b:	e9 90 ff ff ff       	jmpq   400bd0 <.plt>

0000000000400c40 <write@plt>:
  400c40:	ff 25 02 34 20 00    	jmpq   *0x203402(%rip)        # 604048 <write@GLIBC_2.2.5>
  400c46:	68 06 00 00 00       	pushq  $0x6
  400c4b:	e9 80 ff ff ff       	jmpq   400bd0 <.plt>

0000000000400c50 <mmap@plt>:
  400c50:	ff 25 fa 33 20 00    	jmpq   *0x2033fa(%rip)        # 604050 <mmap@GLIBC_2.2.5>
  400c56:	68 07 00 00 00       	pushq  $0x7
  400c5b:	e9 70 ff ff ff       	jmpq   400bd0 <.plt>

0000000000400c60 <printf@plt>:
  400c60:	ff 25 f2 33 20 00    	jmpq   *0x2033f2(%rip)        # 604058 <printf@GLIBC_2.2.5>
  400c66:	68 08 00 00 00       	pushq  $0x8
  400c6b:	e9 60 ff ff ff       	jmpq   400bd0 <.plt>

0000000000400c70 <memset@plt>:
  400c70:	ff 25 ea 33 20 00    	jmpq   *0x2033ea(%rip)        # 604060 <memset@GLIBC_2.2.5>
  400c76:	68 09 00 00 00       	pushq  $0x9
  400c7b:	e9 50 ff ff ff       	jmpq   400bd0 <.plt>

0000000000400c80 <alarm@plt>:
  400c80:	ff 25 e2 33 20 00    	jmpq   *0x2033e2(%rip)        # 604068 <alarm@GLIBC_2.2.5>
  400c86:	68 0a 00 00 00       	pushq  $0xa
  400c8b:	e9 40 ff ff ff       	jmpq   400bd0 <.plt>

0000000000400c90 <close@plt>:
  400c90:	ff 25 da 33 20 00    	jmpq   *0x2033da(%rip)        # 604070 <close@GLIBC_2.2.5>
  400c96:	68 0b 00 00 00       	pushq  $0xb
  400c9b:	e9 30 ff ff ff       	jmpq   400bd0 <.plt>

0000000000400ca0 <read@plt>:
  400ca0:	ff 25 d2 33 20 00    	jmpq   *0x2033d2(%rip)        # 604078 <read@GLIBC_2.2.5>
  400ca6:	68 0c 00 00 00       	pushq  $0xc
  400cab:	e9 20 ff ff ff       	jmpq   400bd0 <.plt>

0000000000400cb0 <signal@plt>:
  400cb0:	ff 25 ca 33 20 00    	jmpq   *0x2033ca(%rip)        # 604080 <signal@GLIBC_2.2.5>
  400cb6:	68 0d 00 00 00       	pushq  $0xd
  400cbb:	e9 10 ff ff ff       	jmpq   400bd0 <.plt>

0000000000400cc0 <gethostbyname@plt>:
  400cc0:	ff 25 c2 33 20 00    	jmpq   *0x2033c2(%rip)        # 604088 <gethostbyname@GLIBC_2.2.5>
  400cc6:	68 0e 00 00 00       	pushq  $0xe
  400ccb:	e9 00 ff ff ff       	jmpq   400bd0 <.plt>

0000000000400cd0 <fprintf@plt>:
  400cd0:	ff 25 ba 33 20 00    	jmpq   *0x2033ba(%rip)        # 604090 <fprintf@GLIBC_2.2.5>
  400cd6:	68 0f 00 00 00       	pushq  $0xf
  400cdb:	e9 f0 fe ff ff       	jmpq   400bd0 <.plt>

0000000000400ce0 <strtol@plt>:
  400ce0:	ff 25 b2 33 20 00    	jmpq   *0x2033b2(%rip)        # 604098 <strtol@GLIBC_2.2.5>
  400ce6:	68 10 00 00 00       	pushq  $0x10
  400ceb:	e9 e0 fe ff ff       	jmpq   400bd0 <.plt>

0000000000400cf0 <memcpy@plt>:
  400cf0:	ff 25 aa 33 20 00    	jmpq   *0x2033aa(%rip)        # 6040a0 <memcpy@GLIBC_2.14>
  400cf6:	68 11 00 00 00       	pushq  $0x11
  400cfb:	e9 d0 fe ff ff       	jmpq   400bd0 <.plt>

0000000000400d00 <time@plt>:
  400d00:	ff 25 a2 33 20 00    	jmpq   *0x2033a2(%rip)        # 6040a8 <time@GLIBC_2.2.5>
  400d06:	68 12 00 00 00       	pushq  $0x12
  400d0b:	e9 c0 fe ff ff       	jmpq   400bd0 <.plt>

0000000000400d10 <random@plt>:
  400d10:	ff 25 9a 33 20 00    	jmpq   *0x20339a(%rip)        # 6040b0 <random@GLIBC_2.2.5>
  400d16:	68 13 00 00 00       	pushq  $0x13
  400d1b:	e9 b0 fe ff ff       	jmpq   400bd0 <.plt>

0000000000400d20 <_IO_getc@plt>:
  400d20:	ff 25 92 33 20 00    	jmpq   *0x203392(%rip)        # 6040b8 <_IO_getc@GLIBC_2.2.5>
  400d26:	68 14 00 00 00       	pushq  $0x14
  400d2b:	e9 a0 fe ff ff       	jmpq   400bd0 <.plt>

0000000000400d30 <__isoc99_sscanf@plt>:
  400d30:	ff 25 8a 33 20 00    	jmpq   *0x20338a(%rip)        # 6040c0 <__isoc99_sscanf@GLIBC_2.7>
  400d36:	68 15 00 00 00       	pushq  $0x15
  400d3b:	e9 90 fe ff ff       	jmpq   400bd0 <.plt>

0000000000400d40 <munmap@plt>:
  400d40:	ff 25 82 33 20 00    	jmpq   *0x203382(%rip)        # 6040c8 <munmap@GLIBC_2.2.5>
  400d46:	68 16 00 00 00       	pushq  $0x16
  400d4b:	e9 80 fe ff ff       	jmpq   400bd0 <.plt>

0000000000400d50 <bcopy@plt>:
  400d50:	ff 25 7a 33 20 00    	jmpq   *0x20337a(%rip)        # 6040d0 <bcopy@GLIBC_2.2.5>
  400d56:	68 17 00 00 00       	pushq  $0x17
  400d5b:	e9 70 fe ff ff       	jmpq   400bd0 <.plt>

0000000000400d60 <fopen@plt>:
  400d60:	ff 25 72 33 20 00    	jmpq   *0x203372(%rip)        # 6040d8 <fopen@GLIBC_2.2.5>
  400d66:	68 18 00 00 00       	pushq  $0x18
  400d6b:	e9 60 fe ff ff       	jmpq   400bd0 <.plt>

0000000000400d70 <getopt@plt>:
  400d70:	ff 25 6a 33 20 00    	jmpq   *0x20336a(%rip)        # 6040e0 <getopt@GLIBC_2.2.5>
  400d76:	68 19 00 00 00       	pushq  $0x19
  400d7b:	e9 50 fe ff ff       	jmpq   400bd0 <.plt>

0000000000400d80 <strtoul@plt>:
  400d80:	ff 25 62 33 20 00    	jmpq   *0x203362(%rip)        # 6040e8 <strtoul@GLIBC_2.2.5>
  400d86:	68 1a 00 00 00       	pushq  $0x1a
  400d8b:	e9 40 fe ff ff       	jmpq   400bd0 <.plt>

0000000000400d90 <gethostname@plt>:
  400d90:	ff 25 5a 33 20 00    	jmpq   *0x20335a(%rip)        # 6040f0 <gethostname@GLIBC_2.2.5>
  400d96:	68 1b 00 00 00       	pushq  $0x1b
  400d9b:	e9 30 fe ff ff       	jmpq   400bd0 <.plt>

0000000000400da0 <sprintf@plt>:
  400da0:	ff 25 52 33 20 00    	jmpq   *0x203352(%rip)        # 6040f8 <sprintf@GLIBC_2.2.5>
  400da6:	68 1c 00 00 00       	pushq  $0x1c
  400dab:	e9 20 fe ff ff       	jmpq   400bd0 <.plt>

0000000000400db0 <exit@plt>:
  400db0:	ff 25 4a 33 20 00    	jmpq   *0x20334a(%rip)        # 604100 <exit@GLIBC_2.2.5>
  400db6:	68 1d 00 00 00       	pushq  $0x1d
  400dbb:	e9 10 fe ff ff       	jmpq   400bd0 <.plt>

0000000000400dc0 <connect@plt>:
  400dc0:	ff 25 42 33 20 00    	jmpq   *0x203342(%rip)        # 604108 <connect@GLIBC_2.2.5>
  400dc6:	68 1e 00 00 00       	pushq  $0x1e
  400dcb:	e9 00 fe ff ff       	jmpq   400bd0 <.plt>

0000000000400dd0 <socket@plt>:
  400dd0:	ff 25 3a 33 20 00    	jmpq   *0x20333a(%rip)        # 604110 <socket@GLIBC_2.2.5>
  400dd6:	68 1f 00 00 00       	pushq  $0x1f
  400ddb:	e9 f0 fd ff ff       	jmpq   400bd0 <.plt>

Disassembly of section .text:

0000000000400de0 <_start>:
  400de0:	31 ed                	xor    %ebp,%ebp
  400de2:	49 89 d1             	mov    %rdx,%r9
  400de5:	5e                   	pop    %rsi
  400de6:	48 89 e2             	mov    %rsp,%rdx
  400de9:	48 83 e4 f0          	and    $0xfffffffffffffff0,%rsp
  400ded:	50                   	push   %rax
  400dee:	54                   	push   %rsp
  400def:	49 c7 c0 a0 2c 40 00 	mov    $0x402ca0,%r8
  400df6:	48 c7 c1 30 2c 40 00 	mov    $0x402c30,%rcx
  400dfd:	48 c7 c7 8d 10 40 00 	mov    $0x40108d,%rdi
  400e04:	ff 15 e6 31 20 00    	callq  *0x2031e6(%rip)        # 603ff0 <__libc_start_main@GLIBC_2.2.5>
  400e0a:	f4                   	hlt    
  400e0b:	0f 1f 44 00 00       	nopl   0x0(%rax,%rax,1)

0000000000400e10 <deregister_tm_clones>:
  400e10:	b8 97 44 60 00       	mov    $0x604497,%eax
  400e15:	55                   	push   %rbp
  400e16:	48 2d 90 44 60 00    	sub    $0x604490,%rax
  400e1c:	48 83 f8 0e          	cmp    $0xe,%rax
  400e20:	48 89 e5             	mov    %rsp,%rbp
  400e23:	76 1b                	jbe    400e40 <deregister_tm_clones+0x30>
  400e25:	b8 00 00 00 00       	mov    $0x0,%eax
  400e2a:	48 85 c0             	test   %rax,%rax
  400e2d:	74 11                	je     400e40 <deregister_tm_clones+0x30>
  400e2f:	5d                   	pop    %rbp
  400e30:	bf 90 44 60 00       	mov    $0x604490,%edi
  400e35:	ff e0                	jmpq   *%rax
  400e37:	66 0f 1f 84 00 00 00 	nopw   0x0(%rax,%rax,1)
  400e3e:	00 00 
  400e40:	5d                   	pop    %rbp
  400e41:	c3                   	retq   
  400e42:	0f 1f 40 00          	nopl   0x0(%rax)
  400e46:	66 2e 0f 1f 84 00 00 	nopw   %cs:0x0(%rax,%rax,1)
  400e4d:	00 00 00 

0000000000400e50 <register_tm_clones>:
  400e50:	be 90 44 60 00       	mov    $0x604490,%esi
  400e55:	55                   	push   %rbp
  400e56:	48 81 ee 90 44 60 00 	sub    $0x604490,%rsi
  400e5d:	48 c1 fe 03          	sar    $0x3,%rsi
  400e61:	48 89 e5             	mov    %rsp,%rbp
  400e64:	48 89 f0             	mov    %rsi,%rax
  400e67:	48 c1 e8 3f          	shr    $0x3f,%rax
  400e6b:	48 01 c6             	add    %rax,%rsi
  400e6e:	48 d1 fe             	sar    %rsi
  400e71:	74 15                	je     400e88 <register_tm_clones+0x38>
  400e73:	b8 00 00 00 00       	mov    $0x0,%eax
  400e78:	48 85 c0             	test   %rax,%rax
  400e7b:	74 0b                	je     400e88 <register_tm_clones+0x38>
  400e7d:	5d                   	pop    %rbp
  400e7e:	bf 90 44 60 00       	mov    $0x604490,%edi
  400e83:	ff e0                	jmpq   *%rax
  400e85:	0f 1f 00             	nopl   (%rax)
  400e88:	5d                   	pop    %rbp
  400e89:	c3                   	retq   
  400e8a:	66 0f 1f 44 00 00    	nopw   0x0(%rax,%rax,1)

0000000000400e90 <__do_global_dtors_aux>:
  400e90:	80 3d 31 36 20 00 00 	cmpb   $0x0,0x203631(%rip)        # 6044c8 <completed.6972>
  400e97:	75 11                	jne    400eaa <__do_global_dtors_aux+0x1a>
  400e99:	55                   	push   %rbp
  400e9a:	48 89 e5             	mov    %rsp,%rbp
  400e9d:	e8 6e ff ff ff       	callq  400e10 <deregister_tm_clones>
  400ea2:	5d                   	pop    %rbp
  400ea3:	c6 05 1e 36 20 00 01 	movb   $0x1,0x20361e(%rip)        # 6044c8 <completed.6972>
  400eaa:	f3 c3                	repz retq 
  400eac:	0f 1f 40 00          	nopl   0x0(%rax)

0000000000400eb0 <frame_dummy>:
  400eb0:	bf 18 3e 60 00       	mov    $0x603e18,%edi
  400eb5:	48 83 3f 00          	cmpq   $0x0,(%rdi)
  400eb9:	75 05                	jne    400ec0 <frame_dummy+0x10>
  400ebb:	eb 93                	jmp    400e50 <register_tm_clones>
  400ebd:	0f 1f 00             	nopl   (%rax)
  400ec0:	b8 00 00 00 00       	mov    $0x0,%eax
  400ec5:	48 85 c0             	test   %rax,%rax
  400ec8:	74 f1                	je     400ebb <frame_dummy+0xb>
  400eca:	55                   	push   %rbp
  400ecb:	48 89 e5             	mov    %rsp,%rbp
  400ece:	ff d0                	callq  *%rax
  400ed0:	5d                   	pop    %rbp
  400ed1:	e9 7a ff ff ff       	jmpq   400e50 <register_tm_clones>

0000000000400ed6 <usage>:
  400ed6:	48 83 ec 08          	sub    $0x8,%rsp
  400eda:	48 89 fe             	mov    %rdi,%rsi
  400edd:	83 3d 24 36 20 00 00 	cmpl   $0x0,0x203624(%rip)        # 604508 <is_checker>
  400ee4:	74 4b                	je     400f31 <usage+0x5b>
  400ee6:	48 8d 3d cb 1d 00 00 	lea    0x1dcb(%rip),%rdi        # 402cb8 <_IO_stdin_used+0x8>
  400eed:	b8 00 00 00 00       	mov    $0x0,%eax
  400ef2:	e8 69 fd ff ff       	callq  400c60 <printf@plt>
  400ef7:	48 8d 3d f2 1d 00 00 	lea    0x1df2(%rip),%rdi        # 402cf0 <_IO_stdin_used+0x40>
  400efe:	e8 2d fd ff ff       	callq  400c30 <puts@plt>
  400f03:	48 8d 3d 1e 1f 00 00 	lea    0x1f1e(%rip),%rdi        # 402e28 <_IO_stdin_used+0x178>
  400f0a:	e8 21 fd ff ff       	callq  400c30 <puts@plt>
  400f0f:	48 8d 3d 02 1e 00 00 	lea    0x1e02(%rip),%rdi        # 402d18 <_IO_stdin_used+0x68>
  400f16:	e8 15 fd ff ff       	callq  400c30 <puts@plt>
  400f1b:	48 8d 3d 20 1f 00 00 	lea    0x1f20(%rip),%rdi        # 402e42 <_IO_stdin_used+0x192>
  400f22:	e8 09 fd ff ff       	callq  400c30 <puts@plt>
  400f27:	bf 00 00 00 00       	mov    $0x0,%edi
  400f2c:	e8 7f fe ff ff       	callq  400db0 <exit@plt>
  400f31:	48 8d 3d 26 1f 00 00 	lea    0x1f26(%rip),%rdi        # 402e5e <_IO_stdin_used+0x1ae>
  400f38:	b8 00 00 00 00       	mov    $0x0,%eax
  400f3d:	e8 1e fd ff ff       	callq  400c60 <printf@plt>
  400f42:	48 8d 3d f7 1d 00 00 	lea    0x1df7(%rip),%rdi        # 402d40 <_IO_stdin_used+0x90>
  400f49:	e8 e2 fc ff ff       	callq  400c30 <puts@plt>
  400f4e:	48 8d 3d 13 1e 00 00 	lea    0x1e13(%rip),%rdi        # 402d68 <_IO_stdin_used+0xb8>
  400f55:	e8 d6 fc ff ff       	callq  400c30 <puts@plt>
  400f5a:	48 8d 3d 1b 1f 00 00 	lea    0x1f1b(%rip),%rdi        # 402e7c <_IO_stdin_used+0x1cc>
  400f61:	e8 ca fc ff ff       	callq  400c30 <puts@plt>
  400f66:	eb bf                	jmp    400f27 <usage+0x51>

0000000000400f68 <initialize_target>:
  400f68:	55                   	push   %rbp
  400f69:	53                   	push   %rbx
  400f6a:	48 81 ec 08 21 00 00 	sub    $0x2108,%rsp
  400f71:	89 f5                	mov    %esi,%ebp
  400f73:	89 3d 7f 35 20 00    	mov    %edi,0x20357f(%rip)        # 6044f8 <check_level>
  400f79:	8b 3d b1 31 20 00    	mov    0x2031b1(%rip),%edi        # 604130 <target_id>
  400f7f:	e8 8a 1c 00 00       	callq  402c0e <gencookie>
  400f84:	89 05 7a 35 20 00    	mov    %eax,0x20357a(%rip)        # 604504 <cookie>
  400f8a:	89 c7                	mov    %eax,%edi
  400f8c:	e8 7d 1c 00 00       	callq  402c0e <gencookie>
  400f91:	89 05 69 35 20 00    	mov    %eax,0x203569(%rip)        # 604500 <authkey>
  400f97:	8b 05 93 31 20 00    	mov    0x203193(%rip),%eax        # 604130 <target_id>
  400f9d:	8d 78 01             	lea    0x1(%rax),%edi
  400fa0:	e8 5b fc ff ff       	callq  400c00 <srandom@plt>
  400fa5:	e8 66 fd ff ff       	callq  400d10 <random@plt>
  400faa:	89 c7                	mov    %eax,%edi
  400fac:	e8 c3 02 00 00       	callq  401274 <scramble>
  400fb1:	89 c3                	mov    %eax,%ebx
  400fb3:	85 ed                	test   %ebp,%ebp
  400fb5:	75 3d                	jne    400ff4 <initialize_target+0x8c>
  400fb7:	b8 00 00 00 00       	mov    $0x0,%eax
  400fbc:	01 d8                	add    %ebx,%eax
  400fbe:	0f b7 c0             	movzwl %ax,%eax
  400fc1:	8d 04 c5 00 01 00 00 	lea    0x100(,%rax,8),%eax
  400fc8:	89 c0                	mov    %eax,%eax
  400fca:	48 89 05 af 34 20 00 	mov    %rax,0x2034af(%rip)        # 604480 <buf_offset>
  400fd1:	c6 05 50 41 20 00 63 	movb   $0x63,0x204150(%rip)        # 605128 <target_prefix>
  400fd8:	83 3d a9 34 20 00 00 	cmpl   $0x0,0x2034a9(%rip)        # 604488 <notify>
  400fdf:	74 09                	je     400fea <initialize_target+0x82>
  400fe1:	83 3d 20 35 20 00 00 	cmpl   $0x0,0x203520(%rip)        # 604508 <is_checker>
  400fe8:	74 22                	je     40100c <initialize_target+0xa4>
  400fea:	48 81 c4 08 21 00 00 	add    $0x2108,%rsp
  400ff1:	5b                   	pop    %rbx
  400ff2:	5d                   	pop    %rbp
  400ff3:	c3                   	retq   
  400ff4:	bf 00 00 00 00       	mov    $0x0,%edi
  400ff9:	e8 02 fd ff ff       	callq  400d00 <time@plt>
  400ffe:	89 c7                	mov    %eax,%edi
  401000:	e8 fb fb ff ff       	callq  400c00 <srandom@plt>
  401005:	e8 06 fd ff ff       	callq  400d10 <random@plt>
  40100a:	eb b0                	jmp    400fbc <initialize_target+0x54>
  40100c:	48 89 e7             	mov    %rsp,%rdi
  40100f:	be 00 01 00 00       	mov    $0x100,%esi
  401014:	e8 77 fd ff ff       	callq  400d90 <gethostname@plt>
  401019:	89 c3                	mov    %eax,%ebx
  40101b:	85 c0                	test   %eax,%eax
  40101d:	75 24                	jne    401043 <initialize_target+0xdb>
  40101f:	48 63 c3             	movslq %ebx,%rax
  401022:	48 8d 15 37 31 20 00 	lea    0x203137(%rip),%rdx        # 604160 <host_table>
  401029:	48 8b 3c c2          	mov    (%rdx,%rax,8),%rdi
  40102d:	48 85 ff             	test   %rdi,%rdi
  401030:	74 27                	je     401059 <initialize_target+0xf1>
  401032:	48 89 e6             	mov    %rsp,%rsi
  401035:	e8 a6 fb ff ff       	callq  400be0 <strcasecmp@plt>
  40103a:	85 c0                	test   %eax,%eax
  40103c:	74 1b                	je     401059 <initialize_target+0xf1>
  40103e:	83 c3 01             	add    $0x1,%ebx
  401041:	eb dc                	jmp    40101f <initialize_target+0xb7>
  401043:	48 8d 3d 4e 1d 00 00 	lea    0x1d4e(%rip),%rdi        # 402d98 <_IO_stdin_used+0xe8>
  40104a:	e8 e1 fb ff ff       	callq  400c30 <puts@plt>
  40104f:	bf 08 00 00 00       	mov    $0x8,%edi
  401054:	e8 57 fd ff ff       	callq  400db0 <exit@plt>
  401059:	48 8d bc 24 00 01 00 	lea    0x100(%rsp),%rdi
  401060:	00 
  401061:	e8 2d 19 00 00       	callq  402993 <init_driver>
  401066:	85 c0                	test   %eax,%eax
  401068:	79 80                	jns    400fea <initialize_target+0x82>
  40106a:	48 8d b4 24 00 01 00 	lea    0x100(%rsp),%rsi
  401071:	00 
  401072:	48 8d 3d 57 1d 00 00 	lea    0x1d57(%rip),%rdi        # 402dd0 <_IO_stdin_used+0x120>
  401079:	b8 00 00 00 00       	mov    $0x0,%eax
  40107e:	e8 dd fb ff ff       	callq  400c60 <printf@plt>
  401083:	bf 08 00 00 00       	mov    $0x8,%edi
  401088:	e8 23 fd ff ff       	callq  400db0 <exit@plt>

000000000040108d <main>:
  40108d:	41 56                	push   %r14
  40108f:	41 55                	push   %r13
  401091:	41 54                	push   %r12
  401093:	55                   	push   %rbp
  401094:	53                   	push   %rbx
  401095:	41 89 fc             	mov    %edi,%r12d
  401098:	48 89 f3             	mov    %rsi,%rbx
  40109b:	48 c7 c6 39 1d 40 00 	mov    $0x401d39,%rsi
  4010a2:	bf 0b 00 00 00       	mov    $0xb,%edi
  4010a7:	e8 04 fc ff ff       	callq  400cb0 <signal@plt>
  4010ac:	48 c7 c6 e5 1c 40 00 	mov    $0x401ce5,%rsi
  4010b3:	bf 07 00 00 00       	mov    $0x7,%edi
  4010b8:	e8 f3 fb ff ff       	callq  400cb0 <signal@plt>
  4010bd:	48 c7 c6 8d 1d 40 00 	mov    $0x401d8d,%rsi
  4010c4:	bf 04 00 00 00       	mov    $0x4,%edi
  4010c9:	e8 e2 fb ff ff       	callq  400cb0 <signal@plt>
  4010ce:	83 3d 33 34 20 00 00 	cmpl   $0x0,0x203433(%rip)        # 604508 <is_checker>
  4010d5:	75 58                	jne    40112f <main+0xa2>
  4010d7:	48 8d 2d b7 1d 00 00 	lea    0x1db7(%rip),%rbp        # 402e95 <_IO_stdin_used+0x1e5>
  4010de:	48 8b 05 bb 33 20 00 	mov    0x2033bb(%rip),%rax        # 6044a0 <stdin@@GLIBC_2.2.5>
  4010e5:	48 89 05 04 34 20 00 	mov    %rax,0x203404(%rip)        # 6044f0 <infile>
  4010ec:	41 bd 00 00 00 00    	mov    $0x0,%r13d
  4010f2:	41 be 00 00 00 00    	mov    $0x0,%r14d
  4010f8:	48 89 ea             	mov    %rbp,%rdx
  4010fb:	48 89 de             	mov    %rbx,%rsi
  4010fe:	44 89 e7             	mov    %r12d,%edi
  401101:	e8 6a fc ff ff       	callq  400d70 <getopt@plt>
  401106:	3c ff                	cmp    $0xff,%al
  401108:	0f 84 f8 00 00 00    	je     401206 <main+0x179>
  40110e:	0f be f0             	movsbl %al,%esi
  401111:	83 e8 61             	sub    $0x61,%eax
  401114:	3c 10                	cmp    $0x10,%al
  401116:	0f 87 d1 00 00 00    	ja     4011ed <main+0x160>
  40111c:	0f b6 c0             	movzbl %al,%eax
  40111f:	48 8d 15 ba 1d 00 00 	lea    0x1dba(%rip),%rdx        # 402ee0 <_IO_stdin_used+0x230>
  401126:	48 63 04 82          	movslq (%rdx,%rax,4),%rax
  40112a:	48 01 d0             	add    %rdx,%rax
  40112d:	ff e0                	jmpq   *%rax
  40112f:	48 c7 c6 e1 1d 40 00 	mov    $0x401de1,%rsi
  401136:	bf 0e 00 00 00       	mov    $0xe,%edi
  40113b:	e8 70 fb ff ff       	callq  400cb0 <signal@plt>
  401140:	bf 05 00 00 00       	mov    $0x5,%edi
  401145:	e8 36 fb ff ff       	callq  400c80 <alarm@plt>
  40114a:	48 8d 2d 49 1d 00 00 	lea    0x1d49(%rip),%rbp        # 402e9a <_IO_stdin_used+0x1ea>
  401151:	eb 8b                	jmp    4010de <main+0x51>
  401153:	48 8b 3b             	mov    (%rbx),%rdi
  401156:	e8 7b fd ff ff       	callq  400ed6 <usage>
  40115b:	48 8d 35 c3 1f 00 00 	lea    0x1fc3(%rip),%rsi        # 403125 <_IO_stdin_used+0x475>
  401162:	48 8b 3d 3f 33 20 00 	mov    0x20333f(%rip),%rdi        # 6044a8 <optarg@@GLIBC_2.2.5>
  401169:	e8 f2 fb ff ff       	callq  400d60 <fopen@plt>
  40116e:	48 89 05 7b 33 20 00 	mov    %rax,0x20337b(%rip)        # 6044f0 <infile>
  401175:	48 85 c0             	test   %rax,%rax
  401178:	0f 85 7a ff ff ff    	jne    4010f8 <main+0x6b>
  40117e:	48 8b 15 23 33 20 00 	mov    0x203323(%rip),%rdx        # 6044a8 <optarg@@GLIBC_2.2.5>
  401185:	48 8d 35 16 1d 00 00 	lea    0x1d16(%rip),%rsi        # 402ea2 <_IO_stdin_used+0x1f2>
  40118c:	48 8b 3d 2d 33 20 00 	mov    0x20332d(%rip),%rdi        # 6044c0 <stderr@@GLIBC_2.2.5>
  401193:	e8 38 fb ff ff       	callq  400cd0 <fprintf@plt>
  401198:	b8 01 00 00 00       	mov    $0x1,%eax
  40119d:	e9 c9 00 00 00       	jmpq   40126b <main+0x1de>
  4011a2:	ba 10 00 00 00       	mov    $0x10,%edx
  4011a7:	be 00 00 00 00       	mov    $0x0,%esi
  4011ac:	48 8b 3d f5 32 20 00 	mov    0x2032f5(%rip),%rdi        # 6044a8 <optarg@@GLIBC_2.2.5>
  4011b3:	e8 c8 fb ff ff       	callq  400d80 <strtoul@plt>
  4011b8:	41 89 c6             	mov    %eax,%r14d
  4011bb:	e9 38 ff ff ff       	jmpq   4010f8 <main+0x6b>
  4011c0:	ba 0a 00 00 00       	mov    $0xa,%edx
  4011c5:	be 00 00 00 00       	mov    $0x0,%esi
  4011ca:	48 8b 3d d7 32 20 00 	mov    0x2032d7(%rip),%rdi        # 6044a8 <optarg@@GLIBC_2.2.5>
  4011d1:	e8 0a fb ff ff       	callq  400ce0 <strtol@plt>
  4011d6:	41 89 c5             	mov    %eax,%r13d
  4011d9:	e9 1a ff ff ff       	jmpq   4010f8 <main+0x6b>
  4011de:	c7 05 a0 32 20 00 00 	movl   $0x0,0x2032a0(%rip)        # 604488 <notify>
  4011e5:	00 00 00 
  4011e8:	e9 0b ff ff ff       	jmpq   4010f8 <main+0x6b>
  4011ed:	48 8d 3d cb 1c 00 00 	lea    0x1ccb(%rip),%rdi        # 402ebf <_IO_stdin_used+0x20f>
  4011f4:	b8 00 00 00 00       	mov    $0x0,%eax
  4011f9:	e8 62 fa ff ff       	callq  400c60 <printf@plt>
  4011fe:	48 8b 3b             	mov    (%rbx),%rdi
  401201:	e8 d0 fc ff ff       	callq  400ed6 <usage>
  401206:	be 00 00 00 00       	mov    $0x0,%esi
  40120b:	44 89 ef             	mov    %r13d,%edi
  40120e:	e8 55 fd ff ff       	callq  400f68 <initialize_target>
  401213:	83 3d ee 32 20 00 00 	cmpl   $0x0,0x2032ee(%rip)        # 604508 <is_checker>
  40121a:	74 27                	je     401243 <main+0x1b6>
  40121c:	44 3b 35 dd 32 20 00 	cmp    0x2032dd(%rip),%r14d        # 604500 <authkey>
  401223:	74 1e                	je     401243 <main+0x1b6>
  401225:	44 89 f6             	mov    %r14d,%esi
  401228:	48 8d 3d c9 1b 00 00 	lea    0x1bc9(%rip),%rdi        # 402df8 <_IO_stdin_used+0x148>
  40122f:	b8 00 00 00 00       	mov    $0x0,%eax
  401234:	e8 27 fa ff ff       	callq  400c60 <printf@plt>
  401239:	b8 00 00 00 00       	mov    $0x0,%eax
  40123e:	e8 72 07 00 00       	callq  4019b5 <check_fail>
  401243:	8b 35 bb 32 20 00    	mov    0x2032bb(%rip),%esi        # 604504 <cookie>
  401249:	48 8d 3d 82 1c 00 00 	lea    0x1c82(%rip),%rdi        # 402ed2 <_IO_stdin_used+0x222>
  401250:	b8 00 00 00 00       	mov    $0x0,%eax
  401255:	e8 06 fa ff ff       	callq  400c60 <printf@plt>
  40125a:	48 8b 3d 1f 32 20 00 	mov    0x20321f(%rip),%rdi        # 604480 <buf_offset>
  401261:	e8 56 0c 00 00       	callq  401ebc <stable_launch>
  401266:	b8 00 00 00 00       	mov    $0x0,%eax
  40126b:	5b                   	pop    %rbx
  40126c:	5d                   	pop    %rbp
  40126d:	41 5c                	pop    %r12
  40126f:	41 5d                	pop    %r13
  401271:	41 5e                	pop    %r14
  401273:	c3                   	retq   

0000000000401274 <scramble>:
  401274:	b8 00 00 00 00       	mov    $0x0,%eax
  401279:	eb 11                	jmp    40128c <scramble+0x18>
  40127b:	69 d0 0a fc 00 00    	imul   $0xfc0a,%eax,%edx
  401281:	01 fa                	add    %edi,%edx
  401283:	89 c1                	mov    %eax,%ecx
  401285:	89 54 8c d0          	mov    %edx,-0x30(%rsp,%rcx,4)
  401289:	83 c0 01             	add    $0x1,%eax
  40128c:	83 f8 09             	cmp    $0x9,%eax
  40128f:	76 ea                	jbe    40127b <scramble+0x7>
  401291:	8b 44 24 e0          	mov    -0x20(%rsp),%eax
  401295:	69 c0 58 aa 00 00    	imul   $0xaa58,%eax,%eax
  40129b:	89 44 24 e0          	mov    %eax,-0x20(%rsp)
  40129f:	8b 44 24 dc          	mov    -0x24(%rsp),%eax
  4012a3:	69 c0 5a c0 00 00    	imul   $0xc05a,%eax,%eax
  4012a9:	89 44 24 dc          	mov    %eax,-0x24(%rsp)
  4012ad:	8b 44 24 e0          	mov    -0x20(%rsp),%eax
  4012b1:	69 c0 3b 74 00 00    	imul   $0x743b,%eax,%eax
  4012b7:	89 44 24 e0          	mov    %eax,-0x20(%rsp)
  4012bb:	8b 44 24 d8          	mov    -0x28(%rsp),%eax
  4012bf:	69 c0 3a 37 00 00    	imul   $0x373a,%eax,%eax
  4012c5:	89 44 24 d8          	mov    %eax,-0x28(%rsp)
  4012c9:	8b 44 24 dc          	mov    -0x24(%rsp),%eax
  4012cd:	69 c0 ec 8f 00 00    	imul   $0x8fec,%eax,%eax
  4012d3:	89 44 24 dc          	mov    %eax,-0x24(%rsp)
  4012d7:	8b 44 24 f0          	mov    -0x10(%rsp),%eax
  4012db:	69 c0 f1 13 00 00    	imul   $0x13f1,%eax,%eax
  4012e1:	89 44 24 f0          	mov    %eax,-0x10(%rsp)
  4012e5:	8b 44 24 d4          	mov    -0x2c(%rsp),%eax
  4012e9:	69 c0 ad 85 00 00    	imul   $0x85ad,%eax,%eax
  4012ef:	89 44 24 d4          	mov    %eax,-0x2c(%rsp)
  4012f3:	8b 44 24 d4          	mov    -0x2c(%rsp),%eax
  4012f7:	69 c0 ed 8d 00 00    	imul   $0x8ded,%eax,%eax
  4012fd:	89 44 24 d4          	mov    %eax,-0x2c(%rsp)
  401301:	8b 44 24 d0          	mov    -0x30(%rsp),%eax
  401305:	69 c0 25 59 00 00    	imul   $0x5925,%eax,%eax
  40130b:	89 44 24 d0          	mov    %eax,-0x30(%rsp)
  40130f:	8b 44 24 d0          	mov    -0x30(%rsp),%eax
  401313:	69 c0 f9 17 00 00    	imul   $0x17f9,%eax,%eax
  401319:	89 44 24 d0          	mov    %eax,-0x30(%rsp)
  40131d:	8b 44 24 e8          	mov    -0x18(%rsp),%eax
  401321:	69 c0 7f d2 00 00    	imul   $0xd27f,%eax,%eax
  401327:	89 44 24 e8          	mov    %eax,-0x18(%rsp)
  40132b:	8b 44 24 ec          	mov    -0x14(%rsp),%eax
  40132f:	69 c0 60 ba 00 00    	imul   $0xba60,%eax,%eax
  401335:	89 44 24 ec          	mov    %eax,-0x14(%rsp)
  401339:	8b 44 24 f4          	mov    -0xc(%rsp),%eax
  40133d:	69 c0 12 f3 00 00    	imul   $0xf312,%eax,%eax
  401343:	89 44 24 f4          	mov    %eax,-0xc(%rsp)
  401347:	8b 44 24 d8          	mov    -0x28(%rsp),%eax
  40134b:	69 c0 19 ea 00 00    	imul   $0xea19,%eax,%eax
  401351:	89 44 24 d8          	mov    %eax,-0x28(%rsp)
  401355:	8b 44 24 d0          	mov    -0x30(%rsp),%eax
  401359:	69 c0 10 89 00 00    	imul   $0x8910,%eax,%eax
  40135f:	89 44 24 d0          	mov    %eax,-0x30(%rsp)
  401363:	8b 44 24 e0          	mov    -0x20(%rsp),%eax
  401367:	69 c0 40 c9 00 00    	imul   $0xc940,%eax,%eax
  40136d:	89 44 24 e0          	mov    %eax,-0x20(%rsp)
  401371:	8b 44 24 e0          	mov    -0x20(%rsp),%eax
  401375:	69 c0 2f a4 00 00    	imul   $0xa42f,%eax,%eax
  40137b:	89 44 24 e0          	mov    %eax,-0x20(%rsp)
  40137f:	8b 44 24 e8          	mov    -0x18(%rsp),%eax
  401383:	69 c0 17 27 00 00    	imul   $0x2717,%eax,%eax
  401389:	89 44 24 e8          	mov    %eax,-0x18(%rsp)
  40138d:	8b 44 24 d8          	mov    -0x28(%rsp),%eax
  401391:	69 c0 d8 da 00 00    	imul   $0xdad8,%eax,%eax
  401397:	89 44 24 d8          	mov    %eax,-0x28(%rsp)
  40139b:	8b 44 24 d0          	mov    -0x30(%rsp),%eax
  40139f:	69 c0 4a 43 00 00    	imul   $0x434a,%eax,%eax
  4013a5:	89 44 24 d0          	mov    %eax,-0x30(%rsp)
  4013a9:	8b 44 24 e4          	mov    -0x1c(%rsp),%eax
  4013ad:	69 c0 d3 e1 00 00    	imul   $0xe1d3,%eax,%eax
  4013b3:	89 44 24 e4          	mov    %eax,-0x1c(%rsp)
  4013b7:	8b 44 24 d0          	mov    -0x30(%rsp),%eax
  4013bb:	69 c0 b0 c0 00 00    	imul   $0xc0b0,%eax,%eax
  4013c1:	89 44 24 d0          	mov    %eax,-0x30(%rsp)
  4013c5:	8b 44 24 ec          	mov    -0x14(%rsp),%eax
  4013c9:	69 c0 c0 a4 00 00    	imul   $0xa4c0,%eax,%eax
  4013cf:	89 44 24 ec          	mov    %eax,-0x14(%rsp)
  4013d3:	8b 44 24 d4          	mov    -0x2c(%rsp),%eax
  4013d7:	69 c0 73 87 00 00    	imul   $0x8773,%eax,%eax
  4013dd:	89 44 24 d4          	mov    %eax,-0x2c(%rsp)
  4013e1:	8b 44 24 e0          	mov    -0x20(%rsp),%eax
  4013e5:	69 c0 67 de 00 00    	imul   $0xde67,%eax,%eax
  4013eb:	89 44 24 e0          	mov    %eax,-0x20(%rsp)
  4013ef:	8b 44 24 f0          	mov    -0x10(%rsp),%eax
  4013f3:	69 c0 14 de 00 00    	imul   $0xde14,%eax,%eax
  4013f9:	89 44 24 f0          	mov    %eax,-0x10(%rsp)
  4013fd:	8b 44 24 e8          	mov    -0x18(%rsp),%eax
  401401:	69 c0 54 61 00 00    	imul   $0x6154,%eax,%eax
  401407:	89 44 24 e8          	mov    %eax,-0x18(%rsp)
  40140b:	8b 44 24 ec          	mov    -0x14(%rsp),%eax
  40140f:	69 c0 8e 73 00 00    	imul   $0x738e,%eax,%eax
  401415:	89 44 24 ec          	mov    %eax,-0x14(%rsp)
  401419:	8b 44 24 ec          	mov    -0x14(%rsp),%eax
  40141d:	69 c0 09 e5 00 00    	imul   $0xe509,%eax,%eax
  401423:	89 44 24 ec          	mov    %eax,-0x14(%rsp)
  401427:	8b 44 24 d0          	mov    -0x30(%rsp),%eax
  40142b:	69 c0 9d 21 00 00    	imul   $0x219d,%eax,%eax
  401431:	89 44 24 d0          	mov    %eax,-0x30(%rsp)
  401435:	8b 44 24 e4          	mov    -0x1c(%rsp),%eax
  401439:	69 c0 c4 ab 00 00    	imul   $0xabc4,%eax,%eax
  40143f:	89 44 24 e4          	mov    %eax,-0x1c(%rsp)
  401443:	8b 44 24 dc          	mov    -0x24(%rsp),%eax
  401447:	69 c0 82 a1 00 00    	imul   $0xa182,%eax,%eax
  40144d:	89 44 24 dc          	mov    %eax,-0x24(%rsp)
  401451:	8b 44 24 e8          	mov    -0x18(%rsp),%eax
  401455:	69 c0 77 74 00 00    	imul   $0x7477,%eax,%eax
  40145b:	89 44 24 e8          	mov    %eax,-0x18(%rsp)
  40145f:	8b 44 24 f4          	mov    -0xc(%rsp),%eax
  401463:	69 c0 5d 68 00 00    	imul   $0x685d,%eax,%eax
  401469:	89 44 24 f4          	mov    %eax,-0xc(%rsp)
  40146d:	8b 44 24 e0          	mov    -0x20(%rsp),%eax
  401471:	69 c0 ec 26 00 00    	imul   $0x26ec,%eax,%eax
  401477:	89 44 24 e0          	mov    %eax,-0x20(%rsp)
  40147b:	8b 44 24 f4          	mov    -0xc(%rsp),%eax
  40147f:	69 c0 14 ba 00 00    	imul   $0xba14,%eax,%eax
  401485:	89 44 24 f4          	mov    %eax,-0xc(%rsp)
  401489:	8b 44 24 d0          	mov    -0x30(%rsp),%eax
  40148d:	69 c0 e3 02 00 00    	imul   $0x2e3,%eax,%eax
  401493:	89 44 24 d0          	mov    %eax,-0x30(%rsp)
  401497:	8b 44 24 e8          	mov    -0x18(%rsp),%eax
  40149b:	69 c0 3f 70 00 00    	imul   $0x703f,%eax,%eax
  4014a1:	89 44 24 e8          	mov    %eax,-0x18(%rsp)
  4014a5:	8b 44 24 d8          	mov    -0x28(%rsp),%eax
  4014a9:	69 c0 62 c9 00 00    	imul   $0xc962,%eax,%eax
  4014af:	89 44 24 d8          	mov    %eax,-0x28(%rsp)
  4014b3:	8b 44 24 ec          	mov    -0x14(%rsp),%eax
  4014b7:	69 c0 89 a5 00 00    	imul   $0xa589,%eax,%eax
  4014bd:	89 44 24 ec          	mov    %eax,-0x14(%rsp)
  4014c1:	8b 44 24 d4          	mov    -0x2c(%rsp),%eax
  4014c5:	69 c0 1e 97 00 00    	imul   $0x971e,%eax,%eax
  4014cb:	89 44 24 d4          	mov    %eax,-0x2c(%rsp)
  4014cf:	8b 44 24 f0          	mov    -0x10(%rsp),%eax
  4014d3:	69 c0 b0 58 00 00    	imul   $0x58b0,%eax,%eax
  4014d9:	89 44 24 f0          	mov    %eax,-0x10(%rsp)
  4014dd:	8b 44 24 e8          	mov    -0x18(%rsp),%eax
  4014e1:	69 c0 11 1c 00 00    	imul   $0x1c11,%eax,%eax
  4014e7:	89 44 24 e8          	mov    %eax,-0x18(%rsp)
  4014eb:	8b 44 24 e4          	mov    -0x1c(%rsp),%eax
  4014ef:	69 c0 d9 4c 00 00    	imul   $0x4cd9,%eax,%eax
  4014f5:	89 44 24 e4          	mov    %eax,-0x1c(%rsp)
  4014f9:	8b 44 24 e8          	mov    -0x18(%rsp),%eax
  4014fd:	69 c0 e5 29 00 00    	imul   $0x29e5,%eax,%eax
  401503:	89 44 24 e8          	mov    %eax,-0x18(%rsp)
  401507:	8b 44 24 dc          	mov    -0x24(%rsp),%eax
  40150b:	69 c0 35 6f 00 00    	imul   $0x6f35,%eax,%eax
  401511:	89 44 24 dc          	mov    %eax,-0x24(%rsp)
  401515:	8b 44 24 e4          	mov    -0x1c(%rsp),%eax
  401519:	69 c0 53 59 00 00    	imul   $0x5953,%eax,%eax
  40151f:	89 44 24 e4          	mov    %eax,-0x1c(%rsp)
  401523:	8b 44 24 e0          	mov    -0x20(%rsp),%eax
  401527:	69 c0 9c 25 00 00    	imul   $0x259c,%eax,%eax
  40152d:	89 44 24 e0          	mov    %eax,-0x20(%rsp)
  401531:	8b 44 24 d0          	mov    -0x30(%rsp),%eax
  401535:	69 c0 51 d9 00 00    	imul   $0xd951,%eax,%eax
  40153b:	89 44 24 d0          	mov    %eax,-0x30(%rsp)
  40153f:	8b 44 24 dc          	mov    -0x24(%rsp),%eax
  401543:	69 c0 1a 1d 00 00    	imul   $0x1d1a,%eax,%eax
  401549:	89 44 24 dc          	mov    %eax,-0x24(%rsp)
  40154d:	8b 44 24 e8          	mov    -0x18(%rsp),%eax
  401551:	69 c0 a2 39 00 00    	imul   $0x39a2,%eax,%eax
  401557:	89 44 24 e8          	mov    %eax,-0x18(%rsp)
  40155b:	8b 44 24 e4          	mov    -0x1c(%rsp),%eax
  40155f:	69 c0 fc 08 00 00    	imul   $0x8fc,%eax,%eax
  401565:	89 44 24 e4          	mov    %eax,-0x1c(%rsp)
  401569:	8b 44 24 dc          	mov    -0x24(%rsp),%eax
  40156d:	69 c0 f2 51 00 00    	imul   $0x51f2,%eax,%eax
  401573:	89 44 24 dc          	mov    %eax,-0x24(%rsp)
  401577:	8b 44 24 e8          	mov    -0x18(%rsp),%eax
  40157b:	69 c0 29 e4 00 00    	imul   $0xe429,%eax,%eax
  401581:	89 44 24 e8          	mov    %eax,-0x18(%rsp)
  401585:	8b 44 24 d4          	mov    -0x2c(%rsp),%eax
  401589:	69 c0 ed 70 00 00    	imul   $0x70ed,%eax,%eax
  40158f:	89 44 24 d4          	mov    %eax,-0x2c(%rsp)
  401593:	8b 44 24 d4          	mov    -0x2c(%rsp),%eax
  401597:	69 c0 1e c3 00 00    	imul   $0xc31e,%eax,%eax
  40159d:	89 44 24 d4          	mov    %eax,-0x2c(%rsp)
  4015a1:	8b 44 24 e0          	mov    -0x20(%rsp),%eax
  4015a5:	69 c0 50 0d 00 00    	imul   $0xd50,%eax,%eax
  4015ab:	89 44 24 e0          	mov    %eax,-0x20(%rsp)
  4015af:	8b 44 24 e0          	mov    -0x20(%rsp),%eax
  4015b3:	6b c0 7e             	imul   $0x7e,%eax,%eax
  4015b6:	89 44 24 e0          	mov    %eax,-0x20(%rsp)
  4015ba:	8b 44 24 d4          	mov    -0x2c(%rsp),%eax
  4015be:	69 c0 0c e8 00 00    	imul   $0xe80c,%eax,%eax
  4015c4:	89 44 24 d4          	mov    %eax,-0x2c(%rsp)
  4015c8:	8b 44 24 e4          	mov    -0x1c(%rsp),%eax
  4015cc:	69 c0 7d 2a 00 00    	imul   $0x2a7d,%eax,%eax
  4015d2:	89 44 24 e4          	mov    %eax,-0x1c(%rsp)
  4015d6:	8b 44 24 f0          	mov    -0x10(%rsp),%eax
  4015da:	69 c0 ce bb 00 00    	imul   $0xbbce,%eax,%eax
  4015e0:	89 44 24 f0          	mov    %eax,-0x10(%rsp)
  4015e4:	8b 44 24 dc          	mov    -0x24(%rsp),%eax
  4015e8:	69 c0 9b e7 00 00    	imul   $0xe79b,%eax,%eax
  4015ee:	89 44 24 dc          	mov    %eax,-0x24(%rsp)
  4015f2:	8b 44 24 ec          	mov    -0x14(%rsp),%eax
  4015f6:	69 c0 69 aa 00 00    	imul   $0xaa69,%eax,%eax
  4015fc:	89 44 24 ec          	mov    %eax,-0x14(%rsp)
  401600:	8b 44 24 ec          	mov    -0x14(%rsp),%eax
  401604:	69 c0 ec e2 00 00    	imul   $0xe2ec,%eax,%eax
  40160a:	89 44 24 ec          	mov    %eax,-0x14(%rsp)
  40160e:	8b 44 24 e0          	mov    -0x20(%rsp),%eax
  401612:	69 c0 31 9b 00 00    	imul   $0x9b31,%eax,%eax
  401618:	89 44 24 e0          	mov    %eax,-0x20(%rsp)
  40161c:	8b 44 24 e4          	mov    -0x1c(%rsp),%eax
  401620:	69 c0 f8 83 00 00    	imul   $0x83f8,%eax,%eax
  401626:	89 44 24 e4          	mov    %eax,-0x1c(%rsp)
  40162a:	8b 44 24 ec          	mov    -0x14(%rsp),%eax
  40162e:	69 c0 34 d7 00 00    	imul   $0xd734,%eax,%eax
  401634:	89 44 24 ec          	mov    %eax,-0x14(%rsp)
  401638:	8b 44 24 f0          	mov    -0x10(%rsp),%eax
  40163c:	69 c0 59 11 00 00    	imul   $0x1159,%eax,%eax
  401642:	89 44 24 f0          	mov    %eax,-0x10(%rsp)
  401646:	8b 44 24 e0          	mov    -0x20(%rsp),%eax
  40164a:	69 c0 30 06 00 00    	imul   $0x630,%eax,%eax
  401650:	89 44 24 e0          	mov    %eax,-0x20(%rsp)
  401654:	8b 44 24 e8          	mov    -0x18(%rsp),%eax
  401658:	69 c0 7b 44 00 00    	imul   $0x447b,%eax,%eax
  40165e:	89 44 24 e8          	mov    %eax,-0x18(%rsp)
  401662:	8b 44 24 dc          	mov    -0x24(%rsp),%eax
  401666:	69 c0 35 7f 00 00    	imul   $0x7f35,%eax,%eax
  40166c:	89 44 24 dc          	mov    %eax,-0x24(%rsp)
  401670:	8b 44 24 d8          	mov    -0x28(%rsp),%eax
  401674:	69 c0 29 7f 00 00    	imul   $0x7f29,%eax,%eax
  40167a:	89 44 24 d8          	mov    %eax,-0x28(%rsp)
  40167e:	8b 44 24 dc          	mov    -0x24(%rsp),%eax
  401682:	69 c0 67 23 00 00    	imul   $0x2367,%eax,%eax
  401688:	89 44 24 dc          	mov    %eax,-0x24(%rsp)
  40168c:	8b 44 24 f4          	mov    -0xc(%rsp),%eax
  401690:	69 c0 e8 b5 00 00    	imul   $0xb5e8,%eax,%eax
  401696:	89 44 24 f4          	mov    %eax,-0xc(%rsp)
  40169a:	8b 44 24 ec          	mov    -0x14(%rsp),%eax
  40169e:	69 c0 ff cc 00 00    	imul   $0xccff,%eax,%eax
  4016a4:	89 44 24 ec          	mov    %eax,-0x14(%rsp)
  4016a8:	8b 44 24 e4          	mov    -0x1c(%rsp),%eax
  4016ac:	69 c0 64 1d 00 00    	imul   $0x1d64,%eax,%eax
  4016b2:	89 44 24 e4          	mov    %eax,-0x1c(%rsp)
  4016b6:	8b 44 24 e4          	mov    -0x1c(%rsp),%eax
  4016ba:	69 c0 17 7a 00 00    	imul   $0x7a17,%eax,%eax
  4016c0:	89 44 24 e4          	mov    %eax,-0x1c(%rsp)
  4016c4:	8b 44 24 d0          	mov    -0x30(%rsp),%eax
  4016c8:	69 c0 ee 9d 00 00    	imul   $0x9dee,%eax,%eax
  4016ce:	89 44 24 d0          	mov    %eax,-0x30(%rsp)
  4016d2:	8b 44 24 f0          	mov    -0x10(%rsp),%eax
  4016d6:	69 c0 37 12 00 00    	imul   $0x1237,%eax,%eax
  4016dc:	89 44 24 f0          	mov    %eax,-0x10(%rsp)
  4016e0:	8b 44 24 e8          	mov    -0x18(%rsp),%eax
  4016e4:	69 c0 3b a8 00 00    	imul   $0xa83b,%eax,%eax
  4016ea:	89 44 24 e8          	mov    %eax,-0x18(%rsp)
  4016ee:	8b 44 24 d8          	mov    -0x28(%rsp),%eax
  4016f2:	69 c0 e0 80 00 00    	imul   $0x80e0,%eax,%eax
  4016f8:	89 44 24 d8          	mov    %eax,-0x28(%rsp)
  4016fc:	8b 44 24 e0          	mov    -0x20(%rsp),%eax
  401700:	69 c0 3c 82 00 00    	imul   $0x823c,%eax,%eax
  401706:	89 44 24 e0          	mov    %eax,-0x20(%rsp)
  40170a:	8b 44 24 e4          	mov    -0x1c(%rsp),%eax
  40170e:	69 c0 29 b9 00 00    	imul   $0xb929,%eax,%eax
  401714:	89 44 24 e4          	mov    %eax,-0x1c(%rsp)
  401718:	8b 44 24 d4          	mov    -0x2c(%rsp),%eax
  40171c:	69 c0 3b 81 00 00    	imul   $0x813b,%eax,%eax
  401722:	89 44 24 d4          	mov    %eax,-0x2c(%rsp)
  401726:	8b 44 24 d0          	mov    -0x30(%rsp),%eax
  40172a:	69 c0 17 89 00 00    	imul   $0x8917,%eax,%eax
  401730:	89 44 24 d0          	mov    %eax,-0x30(%rsp)
  401734:	8b 44 24 f4          	mov    -0xc(%rsp),%eax
  401738:	69 c0 77 36 00 00    	imul   $0x3677,%eax,%eax
  40173e:	89 44 24 f4          	mov    %eax,-0xc(%rsp)
  401742:	8b 44 24 d4          	mov    -0x2c(%rsp),%eax
  401746:	69 c0 4f cd 00 00    	imul   $0xcd4f,%eax,%eax
  40174c:	89 44 24 d4          	mov    %eax,-0x2c(%rsp)
  401750:	8b 44 24 e0          	mov    -0x20(%rsp),%eax
  401754:	69 c0 d3 94 00 00    	imul   $0x94d3,%eax,%eax
  40175a:	89 44 24 e0          	mov    %eax,-0x20(%rsp)
  40175e:	8b 44 24 f4          	mov    -0xc(%rsp),%eax
  401762:	69 c0 48 35 00 00    	imul   $0x3548,%eax,%eax
  401768:	89 44 24 f4          	mov    %eax,-0xc(%rsp)
  40176c:	8b 44 24 dc          	mov    -0x24(%rsp),%eax
  401770:	69 c0 29 fc 00 00    	imul   $0xfc29,%eax,%eax
  401776:	89 44 24 dc          	mov    %eax,-0x24(%rsp)
  40177a:	ba 00 00 00 00       	mov    $0x0,%edx
  40177f:	b8 00 00 00 00       	mov    $0x0,%eax
  401784:	eb 0b                	jmp    401791 <scramble+0x51d>
  401786:	89 d1                	mov    %edx,%ecx
  401788:	8b 4c 8c d0          	mov    -0x30(%rsp,%rcx,4),%ecx
  40178c:	01 c8                	add    %ecx,%eax
  40178e:	83 c2 01             	add    $0x1,%edx
  401791:	83 fa 09             	cmp    $0x9,%edx
  401794:	76 f0                	jbe    401786 <scramble+0x512>
  401796:	f3 c3                	repz retq 

0000000000401798 <getbuf>:
  401798:	48 83 ec 18          	sub    $0x18,%rsp
  40179c:	48 89 e7             	mov    %rsp,%rdi
  40179f:	e8 44 02 00 00       	callq  4019e8 <Gets>
  4017a4:	b8 01 00 00 00       	mov    $0x1,%eax
  4017a9:	48 83 c4 18          	add    $0x18,%rsp
  4017ad:	c3                   	retq   

00000000004017ae <touch1>:
  4017ae:	48 83 ec 08          	sub    $0x8,%rsp
  4017b2:	c7 05 40 2d 20 00 01 	movl   $0x1,0x202d40(%rip)        # 6044fc <vlevel>
  4017b9:	00 00 00 
  4017bc:	48 8d 3d bb 17 00 00 	lea    0x17bb(%rip),%rdi        # 402f7e <_IO_stdin_used+0x2ce>
  4017c3:	e8 68 f4 ff ff       	callq  400c30 <puts@plt>
  4017c8:	bf 01 00 00 00       	mov    $0x1,%edi
  4017cd:	e8 2d 04 00 00       	callq  401bff <validate>
  4017d2:	bf 00 00 00 00       	mov    $0x0,%edi
  4017d7:	e8 d4 f5 ff ff       	callq  400db0 <exit@plt>

00000000004017dc <touch2>:
  4017dc:	48 83 ec 08          	sub    $0x8,%rsp
  4017e0:	89 fe                	mov    %edi,%esi
  4017e2:	c7 05 10 2d 20 00 02 	movl   $0x2,0x202d10(%rip)        # 6044fc <vlevel>
  4017e9:	00 00 00 
  4017ec:	39 3d 12 2d 20 00    	cmp    %edi,0x202d12(%rip)        # 604504 <cookie>
  4017f2:	74 25                	je     401819 <touch2+0x3d>
  4017f4:	48 8d 3d cd 17 00 00 	lea    0x17cd(%rip),%rdi        # 402fc8 <_IO_stdin_used+0x318>
  4017fb:	b8 00 00 00 00       	mov    $0x0,%eax
  401800:	e8 5b f4 ff ff       	callq  400c60 <printf@plt>
  401805:	bf 02 00 00 00       	mov    $0x2,%edi
  40180a:	e8 ae 04 00 00       	callq  401cbd <fail>
  40180f:	bf 00 00 00 00       	mov    $0x0,%edi
  401814:	e8 97 f5 ff ff       	callq  400db0 <exit@plt>
  401819:	48 8d 3d 80 17 00 00 	lea    0x1780(%rip),%rdi        # 402fa0 <_IO_stdin_used+0x2f0>
  401820:	b8 00 00 00 00       	mov    $0x0,%eax
  401825:	e8 36 f4 ff ff       	callq  400c60 <printf@plt>
  40182a:	bf 02 00 00 00       	mov    $0x2,%edi
  40182f:	e8 cb 03 00 00       	callq  401bff <validate>
  401834:	eb d9                	jmp    40180f <touch2+0x33>

0000000000401836 <hexmatch>:
  401836:	41 54                	push   %r12
  401838:	55                   	push   %rbp
  401839:	53                   	push   %rbx
  40183a:	48 83 ec 70          	sub    $0x70,%rsp
  40183e:	89 fd                	mov    %edi,%ebp
  401840:	48 89 f3             	mov    %rsi,%rbx
  401843:	e8 c8 f4 ff ff       	callq  400d10 <random@plt>
  401848:	48 89 c1             	mov    %rax,%rcx
  40184b:	48 ba 0b d7 a3 70 3d 	movabs $0xa3d70a3d70a3d70b,%rdx
  401852:	0a d7 a3 
  401855:	48 f7 ea             	imul   %rdx
  401858:	48 01 ca             	add    %rcx,%rdx
  40185b:	48 c1 fa 06          	sar    $0x6,%rdx
  40185f:	48 89 c8             	mov    %rcx,%rax
  401862:	48 c1 f8 3f          	sar    $0x3f,%rax
  401866:	48 29 c2             	sub    %rax,%rdx
  401869:	48 8d 04 92          	lea    (%rdx,%rdx,4),%rax
  40186d:	48 8d 14 80          	lea    (%rax,%rax,4),%rdx
  401871:	48 8d 04 95 00 00 00 	lea    0x0(,%rdx,4),%rax
  401878:	00 
  401879:	48 29 c1             	sub    %rax,%rcx
  40187c:	4c 8d 24 0c          	lea    (%rsp,%rcx,1),%r12
  401880:	89 ea                	mov    %ebp,%edx
  401882:	48 8d 35 12 17 00 00 	lea    0x1712(%rip),%rsi        # 402f9b <_IO_stdin_used+0x2eb>
  401889:	4c 89 e7             	mov    %r12,%rdi
  40188c:	b8 00 00 00 00       	mov    $0x0,%eax
  401891:	e8 0a f5 ff ff       	callq  400da0 <sprintf@plt>
  401896:	ba 09 00 00 00       	mov    $0x9,%edx
  40189b:	4c 89 e6             	mov    %r12,%rsi
  40189e:	48 89 df             	mov    %rbx,%rdi
  4018a1:	e8 6a f3 ff ff       	callq  400c10 <strncmp@plt>
  4018a6:	85 c0                	test   %eax,%eax
  4018a8:	0f 94 c0             	sete   %al
  4018ab:	0f b6 c0             	movzbl %al,%eax
  4018ae:	48 83 c4 70          	add    $0x70,%rsp
  4018b2:	5b                   	pop    %rbx
  4018b3:	5d                   	pop    %rbp
  4018b4:	41 5c                	pop    %r12
  4018b6:	c3                   	retq   

00000000004018b7 <touch3>:
  4018b7:	53                   	push   %rbx
  4018b8:	48 89 fb             	mov    %rdi,%rbx
  4018bb:	c7 05 37 2c 20 00 03 	movl   $0x3,0x202c37(%rip)        # 6044fc <vlevel>
  4018c2:	00 00 00 
  4018c5:	48 89 fe             	mov    %rdi,%rsi
  4018c8:	8b 3d 36 2c 20 00    	mov    0x202c36(%rip),%edi        # 604504 <cookie>
  4018ce:	e8 63 ff ff ff       	callq  401836 <hexmatch>
  4018d3:	85 c0                	test   %eax,%eax
  4018d5:	74 28                	je     4018ff <touch3+0x48>
  4018d7:	48 89 de             	mov    %rbx,%rsi
  4018da:	48 8d 3d 0f 17 00 00 	lea    0x170f(%rip),%rdi        # 402ff0 <_IO_stdin_used+0x340>
  4018e1:	b8 00 00 00 00       	mov    $0x0,%eax
  4018e6:	e8 75 f3 ff ff       	callq  400c60 <printf@plt>
  4018eb:	bf 03 00 00 00       	mov    $0x3,%edi
  4018f0:	e8 0a 03 00 00       	callq  401bff <validate>
  4018f5:	bf 00 00 00 00       	mov    $0x0,%edi
  4018fa:	e8 b1 f4 ff ff       	callq  400db0 <exit@plt>
  4018ff:	48 89 de             	mov    %rbx,%rsi
  401902:	48 8d 3d 0f 17 00 00 	lea    0x170f(%rip),%rdi        # 403018 <_IO_stdin_used+0x368>
  401909:	b8 00 00 00 00       	mov    $0x0,%eax
  40190e:	e8 4d f3 ff ff       	callq  400c60 <printf@plt>
  401913:	bf 03 00 00 00       	mov    $0x3,%edi
  401918:	e8 a0 03 00 00       	callq  401cbd <fail>
  40191d:	eb d6                	jmp    4018f5 <touch3+0x3e>

000000000040191f <test>:
  40191f:	48 83 ec 08          	sub    $0x8,%rsp
  401923:	b8 00 00 00 00       	mov    $0x0,%eax
  401928:	e8 6b fe ff ff       	callq  401798 <getbuf>
  40192d:	89 c6                	mov    %eax,%esi
  40192f:	48 8d 3d 0a 17 00 00 	lea    0x170a(%rip),%rdi        # 403040 <_IO_stdin_used+0x390>
  401936:	b8 00 00 00 00       	mov    $0x0,%eax
  40193b:	e8 20 f3 ff ff       	callq  400c60 <printf@plt>
  401940:	48 83 c4 08          	add    $0x8,%rsp
  401944:	c3                   	retq   

0000000000401945 <save_char>:
  401945:	8b 05 d9 37 20 00    	mov    0x2037d9(%rip),%eax        # 605124 <gets_cnt>
  40194b:	3d ff 03 00 00       	cmp    $0x3ff,%eax
  401950:	7f 4a                	jg     40199c <save_char+0x57>
  401952:	8d 14 40             	lea    (%rax,%rax,2),%edx
  401955:	89 f9                	mov    %edi,%ecx
  401957:	c0 e9 04             	shr    $0x4,%cl
  40195a:	4c 8d 05 ff 19 00 00 	lea    0x19ff(%rip),%r8        # 403360 <trans_char>
  401961:	83 e1 0f             	and    $0xf,%ecx
  401964:	45 0f b6 0c 08       	movzbl (%r8,%rcx,1),%r9d
  401969:	48 8d 0d b0 2b 20 00 	lea    0x202bb0(%rip),%rcx        # 604520 <gets_buf>
  401970:	48 63 f2             	movslq %edx,%rsi
  401973:	44 88 0c 31          	mov    %r9b,(%rcx,%rsi,1)
  401977:	8d 72 01             	lea    0x1(%rdx),%esi
  40197a:	83 e7 0f             	and    $0xf,%edi
  40197d:	41 0f b6 3c 38       	movzbl (%r8,%rdi,1),%edi
  401982:	48 63 f6             	movslq %esi,%rsi
  401985:	40 88 3c 31          	mov    %dil,(%rcx,%rsi,1)
  401989:	83 c2 02             	add    $0x2,%edx
  40198c:	48 63 d2             	movslq %edx,%rdx
  40198f:	c6 04 11 20          	movb   $0x20,(%rcx,%rdx,1)
  401993:	83 c0 01             	add    $0x1,%eax
  401996:	89 05 88 37 20 00    	mov    %eax,0x203788(%rip)        # 605124 <gets_cnt>
  40199c:	f3 c3                	repz retq 

000000000040199e <save_term>:
  40199e:	8b 05 80 37 20 00    	mov    0x203780(%rip),%eax        # 605124 <gets_cnt>
  4019a4:	8d 04 40             	lea    (%rax,%rax,2),%eax
  4019a7:	48 98                	cltq   
  4019a9:	48 8d 15 70 2b 20 00 	lea    0x202b70(%rip),%rdx        # 604520 <gets_buf>
  4019b0:	c6 04 02 00          	movb   $0x0,(%rdx,%rax,1)
  4019b4:	c3                   	retq   

00000000004019b5 <check_fail>:
  4019b5:	48 83 ec 08          	sub    $0x8,%rsp
  4019b9:	0f be 35 68 37 20 00 	movsbl 0x203768(%rip),%esi        # 605128 <target_prefix>
  4019c0:	48 8d 0d 59 2b 20 00 	lea    0x202b59(%rip),%rcx        # 604520 <gets_buf>
  4019c7:	8b 15 2b 2b 20 00    	mov    0x202b2b(%rip),%edx        # 6044f8 <check_level>
  4019cd:	48 8d 3d 8f 16 00 00 	lea    0x168f(%rip),%rdi        # 403063 <_IO_stdin_used+0x3b3>
  4019d4:	b8 00 00 00 00       	mov    $0x0,%eax
  4019d9:	e8 82 f2 ff ff       	callq  400c60 <printf@plt>
  4019de:	bf 01 00 00 00       	mov    $0x1,%edi
  4019e3:	e8 c8 f3 ff ff       	callq  400db0 <exit@plt>

00000000004019e8 <Gets>:
  4019e8:	41 54                	push   %r12
  4019ea:	55                   	push   %rbp
  4019eb:	53                   	push   %rbx
  4019ec:	49 89 fc             	mov    %rdi,%r12
  4019ef:	c7 05 2b 37 20 00 00 	movl   $0x0,0x20372b(%rip)        # 605124 <gets_cnt>
  4019f6:	00 00 00 
  4019f9:	48 89 fb             	mov    %rdi,%rbx
  4019fc:	eb 11                	jmp    401a0f <Gets+0x27>
  4019fe:	48 8d 6b 01          	lea    0x1(%rbx),%rbp
  401a02:	88 03                	mov    %al,(%rbx)
  401a04:	0f b6 f8             	movzbl %al,%edi
  401a07:	e8 39 ff ff ff       	callq  401945 <save_char>
  401a0c:	48 89 eb             	mov    %rbp,%rbx
  401a0f:	48 8b 3d da 2a 20 00 	mov    0x202ada(%rip),%rdi        # 6044f0 <infile>
  401a16:	e8 05 f3 ff ff       	callq  400d20 <_IO_getc@plt>
  401a1b:	83 f8 ff             	cmp    $0xffffffff,%eax
  401a1e:	74 05                	je     401a25 <Gets+0x3d>
  401a20:	83 f8 0a             	cmp    $0xa,%eax
  401a23:	75 d9                	jne    4019fe <Gets+0x16>
  401a25:	c6 03 00             	movb   $0x0,(%rbx)
  401a28:	b8 00 00 00 00       	mov    $0x0,%eax
  401a2d:	e8 6c ff ff ff       	callq  40199e <save_term>
  401a32:	4c 89 e0             	mov    %r12,%rax
  401a35:	5b                   	pop    %rbx
  401a36:	5d                   	pop    %rbp
  401a37:	41 5c                	pop    %r12
  401a39:	c3                   	retq   

0000000000401a3a <notify_server>:
  401a3a:	83 3d c7 2a 20 00 00 	cmpl   $0x0,0x202ac7(%rip)        # 604508 <is_checker>
  401a41:	0f 85 de 00 00 00    	jne    401b25 <notify_server+0xeb>
  401a47:	55                   	push   %rbp
  401a48:	53                   	push   %rbx
  401a49:	48 81 ec 08 40 00 00 	sub    $0x4008,%rsp
  401a50:	89 fb                	mov    %edi,%ebx
  401a52:	8b 05 cc 36 20 00    	mov    0x2036cc(%rip),%eax        # 605124 <gets_cnt>
  401a58:	83 c0 64             	add    $0x64,%eax
  401a5b:	3d 00 20 00 00       	cmp    $0x2000,%eax
  401a60:	0f 8f c1 00 00 00    	jg     401b27 <notify_server+0xed>
  401a66:	44 0f be 0d ba 36 20 	movsbl 0x2036ba(%rip),%r9d        # 605128 <target_prefix>
  401a6d:	00 
  401a6e:	83 3d 13 2a 20 00 00 	cmpl   $0x0,0x202a13(%rip)        # 604488 <notify>
  401a75:	0f 84 c7 00 00 00    	je     401b42 <notify_server+0x108>
  401a7b:	44 8b 05 7e 2a 20 00 	mov    0x202a7e(%rip),%r8d        # 604500 <authkey>
  401a82:	85 db                	test   %ebx,%ebx
  401a84:	0f 84 c3 00 00 00    	je     401b4d <notify_server+0x113>
  401a8a:	48 8d 2d e8 15 00 00 	lea    0x15e8(%rip),%rbp        # 403079 <_IO_stdin_used+0x3c9>
  401a91:	48 8d bc 24 00 20 00 	lea    0x2000(%rsp),%rdi
  401a98:	00 
  401a99:	48 8d 05 80 2a 20 00 	lea    0x202a80(%rip),%rax        # 604520 <gets_buf>
  401aa0:	50                   	push   %rax
  401aa1:	56                   	push   %rsi
  401aa2:	48 89 e9             	mov    %rbp,%rcx
  401aa5:	8b 15 85 26 20 00    	mov    0x202685(%rip),%edx        # 604130 <target_id>
  401aab:	48 8d 35 d1 15 00 00 	lea    0x15d1(%rip),%rsi        # 403083 <_IO_stdin_used+0x3d3>
  401ab2:	b8 00 00 00 00       	mov    $0x0,%eax
  401ab7:	e8 e4 f2 ff ff       	callq  400da0 <sprintf@plt>
  401abc:	48 83 c4 10          	add    $0x10,%rsp
  401ac0:	83 3d c1 29 20 00 00 	cmpl   $0x0,0x2029c1(%rip)        # 604488 <notify>
  401ac7:	0f 84 b8 00 00 00    	je     401b85 <notify_server+0x14b>
  401acd:	85 db                	test   %ebx,%ebx
  401acf:	0f 84 a2 00 00 00    	je     401b77 <notify_server+0x13d>
  401ad5:	48 8d 8c 24 00 20 00 	lea    0x2000(%rsp),%rcx
  401adc:	00 
  401add:	49 89 e1             	mov    %rsp,%r9
  401ae0:	41 b8 00 00 00 00    	mov    $0x0,%r8d
  401ae6:	48 8b 15 5b 26 20 00 	mov    0x20265b(%rip),%rdx        # 604148 <lab>
  401aed:	48 8b 35 5c 26 20 00 	mov    0x20265c(%rip),%rsi        # 604150 <course>
  401af4:	48 8b 3d 45 26 20 00 	mov    0x202645(%rip),%rdi        # 604140 <user_id>
  401afb:	e8 6e 10 00 00       	callq  402b6e <driver_post>
  401b00:	85 c0                	test   %eax,%eax
  401b02:	78 55                	js     401b59 <notify_server+0x11f>
  401b04:	48 8d 3d bd 16 00 00 	lea    0x16bd(%rip),%rdi        # 4031c8 <_IO_stdin_used+0x518>
  401b0b:	e8 20 f1 ff ff       	callq  400c30 <puts@plt>
  401b10:	48 8d 3d 94 15 00 00 	lea    0x1594(%rip),%rdi        # 4030ab <_IO_stdin_used+0x3fb>
  401b17:	e8 14 f1 ff ff       	callq  400c30 <puts@plt>
  401b1c:	48 81 c4 08 40 00 00 	add    $0x4008,%rsp
  401b23:	5b                   	pop    %rbx
  401b24:	5d                   	pop    %rbp
  401b25:	f3 c3                	repz retq 
  401b27:	48 8d 3d 6a 16 00 00 	lea    0x166a(%rip),%rdi        # 403198 <_IO_stdin_used+0x4e8>
  401b2e:	b8 00 00 00 00       	mov    $0x0,%eax
  401b33:	e8 28 f1 ff ff       	callq  400c60 <printf@plt>
  401b38:	bf 01 00 00 00       	mov    $0x1,%edi
  401b3d:	e8 6e f2 ff ff       	callq  400db0 <exit@plt>
  401b42:	41 b8 ff ff ff ff    	mov    $0xffffffff,%r8d
  401b48:	e9 35 ff ff ff       	jmpq   401a82 <notify_server+0x48>
  401b4d:	48 8d 2d 2a 15 00 00 	lea    0x152a(%rip),%rbp        # 40307e <_IO_stdin_used+0x3ce>
  401b54:	e9 38 ff ff ff       	jmpq   401a91 <notify_server+0x57>
  401b59:	48 89 e6             	mov    %rsp,%rsi
  401b5c:	48 8d 3d 3c 15 00 00 	lea    0x153c(%rip),%rdi        # 40309f <_IO_stdin_used+0x3ef>
  401b63:	b8 00 00 00 00       	mov    $0x0,%eax
  401b68:	e8 f3 f0 ff ff       	callq  400c60 <printf@plt>
  401b6d:	bf 01 00 00 00       	mov    $0x1,%edi
  401b72:	e8 39 f2 ff ff       	callq  400db0 <exit@plt>
  401b77:	48 8d 3d 37 15 00 00 	lea    0x1537(%rip),%rdi        # 4030b5 <_IO_stdin_used+0x405>
  401b7e:	e8 ad f0 ff ff       	callq  400c30 <puts@plt>
  401b83:	eb 97                	jmp    401b1c <notify_server+0xe2>
  401b85:	48 89 ee             	mov    %rbp,%rsi
  401b88:	48 8d 3d 71 16 00 00 	lea    0x1671(%rip),%rdi        # 403200 <_IO_stdin_used+0x550>
  401b8f:	b8 00 00 00 00       	mov    $0x0,%eax
  401b94:	e8 c7 f0 ff ff       	callq  400c60 <printf@plt>
  401b99:	48 8b 35 a0 25 20 00 	mov    0x2025a0(%rip),%rsi        # 604140 <user_id>
  401ba0:	48 8d 3d 15 15 00 00 	lea    0x1515(%rip),%rdi        # 4030bc <_IO_stdin_used+0x40c>
  401ba7:	b8 00 00 00 00       	mov    $0x0,%eax
  401bac:	e8 af f0 ff ff       	callq  400c60 <printf@plt>
  401bb1:	48 8b 35 98 25 20 00 	mov    0x202598(%rip),%rsi        # 604150 <course>
  401bb8:	48 8d 3d 0a 15 00 00 	lea    0x150a(%rip),%rdi        # 4030c9 <_IO_stdin_used+0x419>
  401bbf:	b8 00 00 00 00       	mov    $0x0,%eax
  401bc4:	e8 97 f0 ff ff       	callq  400c60 <printf@plt>
  401bc9:	48 8b 35 78 25 20 00 	mov    0x202578(%rip),%rsi        # 604148 <lab>
  401bd0:	48 8d 3d fe 14 00 00 	lea    0x14fe(%rip),%rdi        # 4030d5 <_IO_stdin_used+0x425>
  401bd7:	b8 00 00 00 00       	mov    $0x0,%eax
  401bdc:	e8 7f f0 ff ff       	callq  400c60 <printf@plt>
  401be1:	48 8d b4 24 00 20 00 	lea    0x2000(%rsp),%rsi
  401be8:	00 
  401be9:	48 8d 3d ee 14 00 00 	lea    0x14ee(%rip),%rdi        # 4030de <_IO_stdin_used+0x42e>
  401bf0:	b8 00 00 00 00       	mov    $0x0,%eax
  401bf5:	e8 66 f0 ff ff       	callq  400c60 <printf@plt>
  401bfa:	e9 1d ff ff ff       	jmpq   401b1c <notify_server+0xe2>

0000000000401bff <validate>:
  401bff:	53                   	push   %rbx
  401c00:	89 fb                	mov    %edi,%ebx
  401c02:	83 3d ff 28 20 00 00 	cmpl   $0x0,0x2028ff(%rip)        # 604508 <is_checker>
  401c09:	74 68                	je     401c73 <validate+0x74>
  401c0b:	39 3d eb 28 20 00    	cmp    %edi,0x2028eb(%rip)        # 6044fc <vlevel>
  401c11:	75 2d                	jne    401c40 <validate+0x41>
  401c13:	8b 35 df 28 20 00    	mov    0x2028df(%rip),%esi        # 6044f8 <check_level>
  401c19:	39 f7                	cmp    %esi,%edi
  401c1b:	75 39                	jne    401c56 <validate+0x57>
  401c1d:	0f be 35 04 35 20 00 	movsbl 0x203504(%rip),%esi        # 605128 <target_prefix>
  401c24:	48 8d 0d f5 28 20 00 	lea    0x2028f5(%rip),%rcx        # 604520 <gets_buf>
  401c2b:	89 fa                	mov    %edi,%edx
  401c2d:	48 8d 3d d4 14 00 00 	lea    0x14d4(%rip),%rdi        # 403108 <_IO_stdin_used+0x458>
  401c34:	b8 00 00 00 00       	mov    $0x0,%eax
  401c39:	e8 22 f0 ff ff       	callq  400c60 <printf@plt>
  401c3e:	5b                   	pop    %rbx
  401c3f:	c3                   	retq   
  401c40:	48 8d 3d a3 14 00 00 	lea    0x14a3(%rip),%rdi        # 4030ea <_IO_stdin_used+0x43a>
  401c47:	e8 e4 ef ff ff       	callq  400c30 <puts@plt>
  401c4c:	b8 00 00 00 00       	mov    $0x0,%eax
  401c51:	e8 5f fd ff ff       	callq  4019b5 <check_fail>
  401c56:	89 fa                	mov    %edi,%edx
  401c58:	48 8d 3d c9 15 00 00 	lea    0x15c9(%rip),%rdi        # 403228 <_IO_stdin_used+0x578>
  401c5f:	b8 00 00 00 00       	mov    $0x0,%eax
  401c64:	e8 f7 ef ff ff       	callq  400c60 <printf@plt>
  401c69:	b8 00 00 00 00       	mov    $0x0,%eax
  401c6e:	e8 42 fd ff ff       	callq  4019b5 <check_fail>
  401c73:	3b 3d 83 28 20 00    	cmp    0x202883(%rip),%edi        # 6044fc <vlevel>
  401c79:	74 1a                	je     401c95 <validate+0x96>
  401c7b:	48 8d 3d 68 14 00 00 	lea    0x1468(%rip),%rdi        # 4030ea <_IO_stdin_used+0x43a>
  401c82:	e8 a9 ef ff ff       	callq  400c30 <puts@plt>
  401c87:	89 de                	mov    %ebx,%esi
  401c89:	bf 00 00 00 00       	mov    $0x0,%edi
  401c8e:	e8 a7 fd ff ff       	callq  401a3a <notify_server>
  401c93:	eb a9                	jmp    401c3e <validate+0x3f>
  401c95:	0f be 15 8c 34 20 00 	movsbl 0x20348c(%rip),%edx        # 605128 <target_prefix>
  401c9c:	89 fe                	mov    %edi,%esi
  401c9e:	48 8d 3d ab 15 00 00 	lea    0x15ab(%rip),%rdi        # 403250 <_IO_stdin_used+0x5a0>
  401ca5:	b8 00 00 00 00       	mov    $0x0,%eax
  401caa:	e8 b1 ef ff ff       	callq  400c60 <printf@plt>
  401caf:	89 de                	mov    %ebx,%esi
  401cb1:	bf 01 00 00 00       	mov    $0x1,%edi
  401cb6:	e8 7f fd ff ff       	callq  401a3a <notify_server>
  401cbb:	eb 81                	jmp    401c3e <validate+0x3f>

0000000000401cbd <fail>:
  401cbd:	48 83 ec 08          	sub    $0x8,%rsp
  401cc1:	83 3d 40 28 20 00 00 	cmpl   $0x0,0x202840(%rip)        # 604508 <is_checker>
  401cc8:	75 11                	jne    401cdb <fail+0x1e>
  401cca:	89 fe                	mov    %edi,%esi
  401ccc:	bf 00 00 00 00       	mov    $0x0,%edi
  401cd1:	e8 64 fd ff ff       	callq  401a3a <notify_server>
  401cd6:	48 83 c4 08          	add    $0x8,%rsp
  401cda:	c3                   	retq   
  401cdb:	b8 00 00 00 00       	mov    $0x0,%eax
  401ce0:	e8 d0 fc ff ff       	callq  4019b5 <check_fail>

0000000000401ce5 <bushandler>:
  401ce5:	48 83 ec 08          	sub    $0x8,%rsp
  401ce9:	83 3d 18 28 20 00 00 	cmpl   $0x0,0x202818(%rip)        # 604508 <is_checker>
  401cf0:	74 16                	je     401d08 <bushandler+0x23>
  401cf2:	48 8d 3d 24 14 00 00 	lea    0x1424(%rip),%rdi        # 40311d <_IO_stdin_used+0x46d>
  401cf9:	e8 32 ef ff ff       	callq  400c30 <puts@plt>
  401cfe:	b8 00 00 00 00       	mov    $0x0,%eax
  401d03:	e8 ad fc ff ff       	callq  4019b5 <check_fail>
  401d08:	48 8d 3d 79 15 00 00 	lea    0x1579(%rip),%rdi        # 403288 <_IO_stdin_used+0x5d8>
  401d0f:	e8 1c ef ff ff       	callq  400c30 <puts@plt>
  401d14:	48 8d 3d 0c 14 00 00 	lea    0x140c(%rip),%rdi        # 403127 <_IO_stdin_used+0x477>
  401d1b:	e8 10 ef ff ff       	callq  400c30 <puts@plt>
  401d20:	be 00 00 00 00       	mov    $0x0,%esi
  401d25:	bf 00 00 00 00       	mov    $0x0,%edi
  401d2a:	e8 0b fd ff ff       	callq  401a3a <notify_server>
  401d2f:	bf 01 00 00 00       	mov    $0x1,%edi
  401d34:	e8 77 f0 ff ff       	callq  400db0 <exit@plt>

0000000000401d39 <seghandler>:
  401d39:	48 83 ec 08          	sub    $0x8,%rsp
  401d3d:	83 3d c4 27 20 00 00 	cmpl   $0x0,0x2027c4(%rip)        # 604508 <is_checker>
  401d44:	74 16                	je     401d5c <seghandler+0x23>
  401d46:	48 8d 3d f0 13 00 00 	lea    0x13f0(%rip),%rdi        # 40313d <_IO_stdin_used+0x48d>
  401d4d:	e8 de ee ff ff       	callq  400c30 <puts@plt>
  401d52:	b8 00 00 00 00       	mov    $0x0,%eax
  401d57:	e8 59 fc ff ff       	callq  4019b5 <check_fail>
  401d5c:	48 8d 3d 45 15 00 00 	lea    0x1545(%rip),%rdi        # 4032a8 <_IO_stdin_used+0x5f8>
  401d63:	e8 c8 ee ff ff       	callq  400c30 <puts@plt>
  401d68:	48 8d 3d b8 13 00 00 	lea    0x13b8(%rip),%rdi        # 403127 <_IO_stdin_used+0x477>
  401d6f:	e8 bc ee ff ff       	callq  400c30 <puts@plt>
  401d74:	be 00 00 00 00       	mov    $0x0,%esi
  401d79:	bf 00 00 00 00       	mov    $0x0,%edi
  401d7e:	e8 b7 fc ff ff       	callq  401a3a <notify_server>
  401d83:	bf 01 00 00 00       	mov    $0x1,%edi
  401d88:	e8 23 f0 ff ff       	callq  400db0 <exit@plt>

0000000000401d8d <illegalhandler>:
  401d8d:	48 83 ec 08          	sub    $0x8,%rsp
  401d91:	83 3d 70 27 20 00 00 	cmpl   $0x0,0x202770(%rip)        # 604508 <is_checker>
  401d98:	74 16                	je     401db0 <illegalhandler+0x23>
  401d9a:	48 8d 3d af 13 00 00 	lea    0x13af(%rip),%rdi        # 403150 <_IO_stdin_used+0x4a0>
  401da1:	e8 8a ee ff ff       	callq  400c30 <puts@plt>
  401da6:	b8 00 00 00 00       	mov    $0x0,%eax
  401dab:	e8 05 fc ff ff       	callq  4019b5 <check_fail>
  401db0:	48 8d 3d 19 15 00 00 	lea    0x1519(%rip),%rdi        # 4032d0 <_IO_stdin_used+0x620>
  401db7:	e8 74 ee ff ff       	callq  400c30 <puts@plt>
  401dbc:	48 8d 3d 64 13 00 00 	lea    0x1364(%rip),%rdi        # 403127 <_IO_stdin_used+0x477>
  401dc3:	e8 68 ee ff ff       	callq  400c30 <puts@plt>
  401dc8:	be 00 00 00 00       	mov    $0x0,%esi
  401dcd:	bf 00 00 00 00       	mov    $0x0,%edi
  401dd2:	e8 63 fc ff ff       	callq  401a3a <notify_server>
  401dd7:	bf 01 00 00 00       	mov    $0x1,%edi
  401ddc:	e8 cf ef ff ff       	callq  400db0 <exit@plt>

0000000000401de1 <sigalrmhandler>:
  401de1:	48 83 ec 08          	sub    $0x8,%rsp
  401de5:	83 3d 1c 27 20 00 00 	cmpl   $0x0,0x20271c(%rip)        # 604508 <is_checker>
  401dec:	74 16                	je     401e04 <sigalrmhandler+0x23>
  401dee:	48 8d 3d 6f 13 00 00 	lea    0x136f(%rip),%rdi        # 403164 <_IO_stdin_used+0x4b4>
  401df5:	e8 36 ee ff ff       	callq  400c30 <puts@plt>
  401dfa:	b8 00 00 00 00       	mov    $0x0,%eax
  401dff:	e8 b1 fb ff ff       	callq  4019b5 <check_fail>
  401e04:	be 05 00 00 00       	mov    $0x5,%esi
  401e09:	48 8d 3d f0 14 00 00 	lea    0x14f0(%rip),%rdi        # 403300 <_IO_stdin_used+0x650>
  401e10:	b8 00 00 00 00       	mov    $0x0,%eax
  401e15:	e8 46 ee ff ff       	callq  400c60 <printf@plt>
  401e1a:	be 00 00 00 00       	mov    $0x0,%esi
  401e1f:	bf 00 00 00 00       	mov    $0x0,%edi
  401e24:	e8 11 fc ff ff       	callq  401a3a <notify_server>
  401e29:	bf 01 00 00 00       	mov    $0x1,%edi
  401e2e:	e8 7d ef ff ff       	callq  400db0 <exit@plt>

0000000000401e33 <launch>:
  401e33:	55                   	push   %rbp
  401e34:	48 89 e5             	mov    %rsp,%rbp
  401e37:	48 89 fa             	mov    %rdi,%rdx
  401e3a:	48 8d 47 1e          	lea    0x1e(%rdi),%rax
  401e3e:	48 83 e0 f0          	and    $0xfffffffffffffff0,%rax
  401e42:	48 29 c4             	sub    %rax,%rsp
  401e45:	48 8d 7c 24 0f       	lea    0xf(%rsp),%rdi
  401e4a:	48 83 e7 f0          	and    $0xfffffffffffffff0,%rdi
  401e4e:	be f4 00 00 00       	mov    $0xf4,%esi
  401e53:	e8 18 ee ff ff       	callq  400c70 <memset@plt>
  401e58:	48 8b 05 41 26 20 00 	mov    0x202641(%rip),%rax        # 6044a0 <stdin@@GLIBC_2.2.5>
  401e5f:	48 39 05 8a 26 20 00 	cmp    %rax,0x20268a(%rip)        # 6044f0 <infile>
  401e66:	74 2b                	je     401e93 <launch+0x60>
  401e68:	c7 05 8a 26 20 00 00 	movl   $0x0,0x20268a(%rip)        # 6044fc <vlevel>
  401e6f:	00 00 00 
  401e72:	b8 00 00 00 00       	mov    $0x0,%eax
  401e77:	e8 a3 fa ff ff       	callq  40191f <test>
  401e7c:	83 3d 85 26 20 00 00 	cmpl   $0x0,0x202685(%rip)        # 604508 <is_checker>
  401e83:	75 21                	jne    401ea6 <launch+0x73>
  401e85:	48 8d 3d f8 12 00 00 	lea    0x12f8(%rip),%rdi        # 403184 <_IO_stdin_used+0x4d4>
  401e8c:	e8 9f ed ff ff       	callq  400c30 <puts@plt>
  401e91:	c9                   	leaveq 
  401e92:	c3                   	retq   
  401e93:	48 8d 3d d2 12 00 00 	lea    0x12d2(%rip),%rdi        # 40316c <_IO_stdin_used+0x4bc>
  401e9a:	b8 00 00 00 00       	mov    $0x0,%eax
  401e9f:	e8 bc ed ff ff       	callq  400c60 <printf@plt>
  401ea4:	eb c2                	jmp    401e68 <launch+0x35>
  401ea6:	48 8d 3d cc 12 00 00 	lea    0x12cc(%rip),%rdi        # 403179 <_IO_stdin_used+0x4c9>
  401ead:	e8 7e ed ff ff       	callq  400c30 <puts@plt>
  401eb2:	b8 00 00 00 00       	mov    $0x0,%eax
  401eb7:	e8 f9 fa ff ff       	callq  4019b5 <check_fail>

0000000000401ebc <stable_launch>:
  401ebc:	53                   	push   %rbx
  401ebd:	48 89 3d 24 26 20 00 	mov    %rdi,0x202624(%rip)        # 6044e8 <global_offset>
  401ec4:	41 b9 00 00 00 00    	mov    $0x0,%r9d
  401eca:	41 b8 00 00 00 00    	mov    $0x0,%r8d
  401ed0:	b9 32 01 00 00       	mov    $0x132,%ecx
  401ed5:	ba 07 00 00 00       	mov    $0x7,%edx
  401eda:	be 00 00 10 00       	mov    $0x100000,%esi
  401edf:	bf 00 60 58 55       	mov    $0x55586000,%edi
  401ee4:	e8 67 ed ff ff       	callq  400c50 <mmap@plt>
  401ee9:	48 89 c3             	mov    %rax,%rbx
  401eec:	48 3d 00 60 58 55    	cmp    $0x55586000,%rax
  401ef2:	75 43                	jne    401f37 <stable_launch+0x7b>
  401ef4:	48 8d 90 f8 ff 0f 00 	lea    0xffff8(%rax),%rdx
  401efb:	48 89 15 2e 32 20 00 	mov    %rdx,0x20322e(%rip)        # 605130 <stack_top>
  401f02:	48 89 e0             	mov    %rsp,%rax
  401f05:	48 89 d4             	mov    %rdx,%rsp
  401f08:	48 89 c2             	mov    %rax,%rdx
  401f0b:	48 89 15 ce 25 20 00 	mov    %rdx,0x2025ce(%rip)        # 6044e0 <global_save_stack>
  401f12:	48 8b 3d cf 25 20 00 	mov    0x2025cf(%rip),%rdi        # 6044e8 <global_offset>
  401f19:	e8 15 ff ff ff       	callq  401e33 <launch>
  401f1e:	48 8b 05 bb 25 20 00 	mov    0x2025bb(%rip),%rax        # 6044e0 <global_save_stack>
  401f25:	48 89 c4             	mov    %rax,%rsp
  401f28:	be 00 00 10 00       	mov    $0x100000,%esi
  401f2d:	48 89 df             	mov    %rbx,%rdi
  401f30:	e8 0b ee ff ff       	callq  400d40 <munmap@plt>
  401f35:	5b                   	pop    %rbx
  401f36:	c3                   	retq   
  401f37:	be 00 00 10 00       	mov    $0x100000,%esi
  401f3c:	48 89 c7             	mov    %rax,%rdi
  401f3f:	e8 fc ed ff ff       	callq  400d40 <munmap@plt>
  401f44:	ba 00 60 58 55       	mov    $0x55586000,%edx
  401f49:	48 8d 35 e8 13 00 00 	lea    0x13e8(%rip),%rsi        # 403338 <_IO_stdin_used+0x688>
  401f50:	48 8b 3d 69 25 20 00 	mov    0x202569(%rip),%rdi        # 6044c0 <stderr@@GLIBC_2.2.5>
  401f57:	b8 00 00 00 00       	mov    $0x0,%eax
  401f5c:	e8 6f ed ff ff       	callq  400cd0 <fprintf@plt>
  401f61:	bf 01 00 00 00       	mov    $0x1,%edi
  401f66:	e8 45 ee ff ff       	callq  400db0 <exit@plt>

0000000000401f6b <rio_readinitb>:
  401f6b:	89 37                	mov    %esi,(%rdi)
  401f6d:	c7 47 04 00 00 00 00 	movl   $0x0,0x4(%rdi)
  401f74:	48 8d 47 10          	lea    0x10(%rdi),%rax
  401f78:	48 89 47 08          	mov    %rax,0x8(%rdi)
  401f7c:	c3                   	retq   

0000000000401f7d <sigalrm_handler>:
  401f7d:	48 83 ec 08          	sub    $0x8,%rsp
  401f81:	ba 00 00 00 00       	mov    $0x0,%edx
  401f86:	48 8d 35 e3 13 00 00 	lea    0x13e3(%rip),%rsi        # 403370 <trans_char+0x10>
  401f8d:	48 8b 3d 2c 25 20 00 	mov    0x20252c(%rip),%rdi        # 6044c0 <stderr@@GLIBC_2.2.5>
  401f94:	b8 00 00 00 00       	mov    $0x0,%eax
  401f99:	e8 32 ed ff ff       	callq  400cd0 <fprintf@plt>
  401f9e:	bf 01 00 00 00       	mov    $0x1,%edi
  401fa3:	e8 08 ee ff ff       	callq  400db0 <exit@plt>

0000000000401fa8 <urlencode>:
  401fa8:	41 54                	push   %r12
  401faa:	55                   	push   %rbp
  401fab:	53                   	push   %rbx
  401fac:	48 83 ec 10          	sub    $0x10,%rsp
  401fb0:	48 89 fb             	mov    %rdi,%rbx
  401fb3:	48 89 f5             	mov    %rsi,%rbp
  401fb6:	b8 00 00 00 00       	mov    $0x0,%eax
  401fbb:	48 c7 c1 ff ff ff ff 	mov    $0xffffffffffffffff,%rcx
  401fc2:	f2 ae                	repnz scas %es:(%rdi),%al
  401fc4:	48 f7 d1             	not    %rcx
  401fc7:	8d 41 ff             	lea    -0x1(%rcx),%eax
  401fca:	eb 0e                	jmp    401fda <urlencode+0x32>
  401fcc:	88 55 00             	mov    %dl,0x0(%rbp)
  401fcf:	48 8d 6d 01          	lea    0x1(%rbp),%rbp
  401fd3:	48 83 c3 01          	add    $0x1,%rbx
  401fd7:	44 89 e0             	mov    %r12d,%eax
  401fda:	44 8d 60 ff          	lea    -0x1(%rax),%r12d
  401fde:	85 c0                	test   %eax,%eax
  401fe0:	0f 84 95 00 00 00    	je     40207b <urlencode+0xd3>
  401fe6:	0f b6 13             	movzbl (%rbx),%edx
  401fe9:	80 fa 2a             	cmp    $0x2a,%dl
  401fec:	0f 94 c1             	sete   %cl
  401fef:	80 fa 2d             	cmp    $0x2d,%dl
  401ff2:	0f 94 c0             	sete   %al
  401ff5:	08 c1                	or     %al,%cl
  401ff7:	75 d3                	jne    401fcc <urlencode+0x24>
  401ff9:	80 fa 2e             	cmp    $0x2e,%dl
  401ffc:	74 ce                	je     401fcc <urlencode+0x24>
  401ffe:	80 fa 5f             	cmp    $0x5f,%dl
  402001:	74 c9                	je     401fcc <urlencode+0x24>
  402003:	8d 42 d0             	lea    -0x30(%rdx),%eax
  402006:	3c 09                	cmp    $0x9,%al
  402008:	76 c2                	jbe    401fcc <urlencode+0x24>
  40200a:	8d 42 bf             	lea    -0x41(%rdx),%eax
  40200d:	3c 19                	cmp    $0x19,%al
  40200f:	76 bb                	jbe    401fcc <urlencode+0x24>
  402011:	8d 42 9f             	lea    -0x61(%rdx),%eax
  402014:	3c 19                	cmp    $0x19,%al
  402016:	76 b4                	jbe    401fcc <urlencode+0x24>
  402018:	80 fa 20             	cmp    $0x20,%dl
  40201b:	74 4c                	je     402069 <urlencode+0xc1>
  40201d:	8d 42 e0             	lea    -0x20(%rdx),%eax
  402020:	3c 5f                	cmp    $0x5f,%al
  402022:	0f 96 c1             	setbe  %cl
  402025:	80 fa 09             	cmp    $0x9,%dl
  402028:	0f 94 c0             	sete   %al
  40202b:	08 c1                	or     %al,%cl
  40202d:	74 47                	je     402076 <urlencode+0xce>
  40202f:	0f b6 d2             	movzbl %dl,%edx
  402032:	48 8d 7c 24 08       	lea    0x8(%rsp),%rdi
  402037:	48 8d 35 ca 13 00 00 	lea    0x13ca(%rip),%rsi        # 403408 <trans_char+0xa8>
  40203e:	b8 00 00 00 00       	mov    $0x0,%eax
  402043:	e8 58 ed ff ff       	callq  400da0 <sprintf@plt>
  402048:	0f b6 44 24 08       	movzbl 0x8(%rsp),%eax
  40204d:	88 45 00             	mov    %al,0x0(%rbp)
  402050:	0f b6 44 24 09       	movzbl 0x9(%rsp),%eax
  402055:	88 45 01             	mov    %al,0x1(%rbp)
  402058:	0f b6 44 24 0a       	movzbl 0xa(%rsp),%eax
  40205d:	88 45 02             	mov    %al,0x2(%rbp)
  402060:	48 8d 6d 03          	lea    0x3(%rbp),%rbp
  402064:	e9 6a ff ff ff       	jmpq   401fd3 <urlencode+0x2b>
  402069:	c6 45 00 2b          	movb   $0x2b,0x0(%rbp)
  40206d:	48 8d 6d 01          	lea    0x1(%rbp),%rbp
  402071:	e9 5d ff ff ff       	jmpq   401fd3 <urlencode+0x2b>
  402076:	b8 ff ff ff ff       	mov    $0xffffffff,%eax
  40207b:	48 83 c4 10          	add    $0x10,%rsp
  40207f:	5b                   	pop    %rbx
  402080:	5d                   	pop    %rbp
  402081:	41 5c                	pop    %r12
  402083:	c3                   	retq   

0000000000402084 <rio_writen>:
  402084:	41 55                	push   %r13
  402086:	41 54                	push   %r12
  402088:	55                   	push   %rbp
  402089:	53                   	push   %rbx
  40208a:	48 83 ec 08          	sub    $0x8,%rsp
  40208e:	41 89 fc             	mov    %edi,%r12d
  402091:	49 89 d5             	mov    %rdx,%r13
  402094:	48 89 f5             	mov    %rsi,%rbp
  402097:	48 89 d3             	mov    %rdx,%rbx
  40209a:	eb 06                	jmp    4020a2 <rio_writen+0x1e>
  40209c:	48 29 c3             	sub    %rax,%rbx
  40209f:	48 01 c5             	add    %rax,%rbp
  4020a2:	48 85 db             	test   %rbx,%rbx
  4020a5:	74 24                	je     4020cb <rio_writen+0x47>
  4020a7:	48 89 da             	mov    %rbx,%rdx
  4020aa:	48 89 ee             	mov    %rbp,%rsi
  4020ad:	44 89 e7             	mov    %r12d,%edi
  4020b0:	e8 8b eb ff ff       	callq  400c40 <write@plt>
  4020b5:	48 85 c0             	test   %rax,%rax
  4020b8:	7f e2                	jg     40209c <rio_writen+0x18>
  4020ba:	e8 31 eb ff ff       	callq  400bf0 <__errno_location@plt>
  4020bf:	83 38 04             	cmpl   $0x4,(%rax)
  4020c2:	75 15                	jne    4020d9 <rio_writen+0x55>
  4020c4:	b8 00 00 00 00       	mov    $0x0,%eax
  4020c9:	eb d1                	jmp    40209c <rio_writen+0x18>
  4020cb:	4c 89 e8             	mov    %r13,%rax
  4020ce:	48 83 c4 08          	add    $0x8,%rsp
  4020d2:	5b                   	pop    %rbx
  4020d3:	5d                   	pop    %rbp
  4020d4:	41 5c                	pop    %r12
  4020d6:	41 5d                	pop    %r13
  4020d8:	c3                   	retq   
  4020d9:	48 c7 c0 ff ff ff ff 	mov    $0xffffffffffffffff,%rax
  4020e0:	eb ec                	jmp    4020ce <rio_writen+0x4a>

00000000004020e2 <rio_read>:
  4020e2:	41 55                	push   %r13
  4020e4:	41 54                	push   %r12
  4020e6:	55                   	push   %rbp
  4020e7:	53                   	push   %rbx
  4020e8:	48 83 ec 08          	sub    $0x8,%rsp
  4020ec:	48 89 fb             	mov    %rdi,%rbx
  4020ef:	49 89 f5             	mov    %rsi,%r13
  4020f2:	49 89 d4             	mov    %rdx,%r12
  4020f5:	eb 0a                	jmp    402101 <rio_read+0x1f>
  4020f7:	e8 f4 ea ff ff       	callq  400bf0 <__errno_location@plt>
  4020fc:	83 38 04             	cmpl   $0x4,(%rax)
  4020ff:	75 5c                	jne    40215d <rio_read+0x7b>
  402101:	8b 6b 04             	mov    0x4(%rbx),%ebp
  402104:	85 ed                	test   %ebp,%ebp
  402106:	7f 24                	jg     40212c <rio_read+0x4a>
  402108:	48 8d 6b 10          	lea    0x10(%rbx),%rbp
  40210c:	ba 00 20 00 00       	mov    $0x2000,%edx
  402111:	48 89 ee             	mov    %rbp,%rsi
  402114:	8b 3b                	mov    (%rbx),%edi
  402116:	e8 85 eb ff ff       	callq  400ca0 <read@plt>
  40211b:	89 43 04             	mov    %eax,0x4(%rbx)
  40211e:	85 c0                	test   %eax,%eax
  402120:	78 d5                	js     4020f7 <rio_read+0x15>
  402122:	85 c0                	test   %eax,%eax
  402124:	74 40                	je     402166 <rio_read+0x84>
  402126:	48 89 6b 08          	mov    %rbp,0x8(%rbx)
  40212a:	eb d5                	jmp    402101 <rio_read+0x1f>
  40212c:	89 e8                	mov    %ebp,%eax
  40212e:	49 39 c4             	cmp    %rax,%r12
  402131:	77 03                	ja     402136 <rio_read+0x54>
  402133:	44 89 e5             	mov    %r12d,%ebp
  402136:	4c 63 e5             	movslq %ebp,%r12
  402139:	48 8b 73 08          	mov    0x8(%rbx),%rsi
  40213d:	4c 89 e2             	mov    %r12,%rdx
  402140:	4c 89 ef             	mov    %r13,%rdi
  402143:	e8 a8 eb ff ff       	callq  400cf0 <memcpy@plt>
  402148:	4c 01 63 08          	add    %r12,0x8(%rbx)
  40214c:	29 6b 04             	sub    %ebp,0x4(%rbx)
  40214f:	4c 89 e0             	mov    %r12,%rax
  402152:	48 83 c4 08          	add    $0x8,%rsp
  402156:	5b                   	pop    %rbx
  402157:	5d                   	pop    %rbp
  402158:	41 5c                	pop    %r12
  40215a:	41 5d                	pop    %r13
  40215c:	c3                   	retq   
  40215d:	48 c7 c0 ff ff ff ff 	mov    $0xffffffffffffffff,%rax
  402164:	eb ec                	jmp    402152 <rio_read+0x70>
  402166:	b8 00 00 00 00       	mov    $0x0,%eax
  40216b:	eb e5                	jmp    402152 <rio_read+0x70>

000000000040216d <rio_readlineb>:
  40216d:	41 55                	push   %r13
  40216f:	41 54                	push   %r12
  402171:	55                   	push   %rbp
  402172:	53                   	push   %rbx
  402173:	48 83 ec 18          	sub    $0x18,%rsp
  402177:	49 89 fd             	mov    %rdi,%r13
  40217a:	49 89 d4             	mov    %rdx,%r12
  40217d:	48 89 f5             	mov    %rsi,%rbp
  402180:	bb 01 00 00 00       	mov    $0x1,%ebx
  402185:	4c 39 e3             	cmp    %r12,%rbx
  402188:	73 47                	jae    4021d1 <rio_readlineb+0x64>
  40218a:	48 8d 74 24 0f       	lea    0xf(%rsp),%rsi
  40218f:	ba 01 00 00 00       	mov    $0x1,%edx
  402194:	4c 89 ef             	mov    %r13,%rdi
  402197:	e8 46 ff ff ff       	callq  4020e2 <rio_read>
  40219c:	83 f8 01             	cmp    $0x1,%eax
  40219f:	75 1c                	jne    4021bd <rio_readlineb+0x50>
  4021a1:	48 8d 45 01          	lea    0x1(%rbp),%rax
  4021a5:	0f b6 54 24 0f       	movzbl 0xf(%rsp),%edx
  4021aa:	88 55 00             	mov    %dl,0x0(%rbp)
  4021ad:	80 7c 24 0f 0a       	cmpb   $0xa,0xf(%rsp)
  4021b2:	74 1a                	je     4021ce <rio_readlineb+0x61>
  4021b4:	48 83 c3 01          	add    $0x1,%rbx
  4021b8:	48 89 c5             	mov    %rax,%rbp
  4021bb:	eb c8                	jmp    402185 <rio_readlineb+0x18>
  4021bd:	85 c0                	test   %eax,%eax
  4021bf:	75 22                	jne    4021e3 <rio_readlineb+0x76>
  4021c1:	48 83 fb 01          	cmp    $0x1,%rbx
  4021c5:	75 0a                	jne    4021d1 <rio_readlineb+0x64>
  4021c7:	b8 00 00 00 00       	mov    $0x0,%eax
  4021cc:	eb 0a                	jmp    4021d8 <rio_readlineb+0x6b>
  4021ce:	48 89 c5             	mov    %rax,%rbp
  4021d1:	c6 45 00 00          	movb   $0x0,0x0(%rbp)
  4021d5:	48 89 d8             	mov    %rbx,%rax
  4021d8:	48 83 c4 18          	add    $0x18,%rsp
  4021dc:	5b                   	pop    %rbx
  4021dd:	5d                   	pop    %rbp
  4021de:	41 5c                	pop    %r12
  4021e0:	41 5d                	pop    %r13
  4021e2:	c3                   	retq   
  4021e3:	48 c7 c0 ff ff ff ff 	mov    $0xffffffffffffffff,%rax
  4021ea:	eb ec                	jmp    4021d8 <rio_readlineb+0x6b>

00000000004021ec <submitr>:
  4021ec:	41 57                	push   %r15
  4021ee:	41 56                	push   %r14
  4021f0:	41 55                	push   %r13
  4021f2:	41 54                	push   %r12
  4021f4:	55                   	push   %rbp
  4021f5:	53                   	push   %rbx
  4021f6:	48 81 ec 58 a0 00 00 	sub    $0xa058,%rsp
  4021fd:	49 89 fd             	mov    %rdi,%r13
  402200:	89 74 24 14          	mov    %esi,0x14(%rsp)
  402204:	49 89 d7             	mov    %rdx,%r15
  402207:	48 89 4c 24 08       	mov    %rcx,0x8(%rsp)
  40220c:	4c 89 44 24 18       	mov    %r8,0x18(%rsp)
  402211:	4d 89 ce             	mov    %r9,%r14
  402214:	48 8b 9c 24 90 a0 00 	mov    0xa090(%rsp),%rbx
  40221b:	00 
  40221c:	c7 84 24 2c 20 00 00 	movl   $0x0,0x202c(%rsp)
  402223:	00 00 00 00 
  402227:	ba 00 00 00 00       	mov    $0x0,%edx
  40222c:	be 01 00 00 00       	mov    $0x1,%esi
  402231:	bf 02 00 00 00       	mov    $0x2,%edi
  402236:	e8 95 eb ff ff       	callq  400dd0 <socket@plt>
  40223b:	85 c0                	test   %eax,%eax
  40223d:	0f 88 ca 01 00 00    	js     40240d <submitr+0x221>
  402243:	89 c5                	mov    %eax,%ebp
  402245:	4c 89 ef             	mov    %r13,%rdi
  402248:	e8 73 ea ff ff       	callq  400cc0 <gethostbyname@plt>
  40224d:	48 85 c0             	test   %rax,%rax
  402250:	0f 84 05 02 00 00    	je     40245b <submitr+0x26f>
  402256:	4c 8d a4 24 40 a0 00 	lea    0xa040(%rsp),%r12
  40225d:	00 
  40225e:	48 c7 84 24 40 a0 00 	movq   $0x0,0xa040(%rsp)
  402265:	00 00 00 00 00 
  40226a:	48 c7 84 24 48 a0 00 	movq   $0x0,0xa048(%rsp)
  402271:	00 00 00 00 00 
  402276:	66 c7 84 24 40 a0 00 	movw   $0x2,0xa040(%rsp)
  40227d:	00 02 00 
  402280:	48 8b 48 18          	mov    0x18(%rax),%rcx
  402284:	48 63 50 14          	movslq 0x14(%rax),%rdx
  402288:	48 8d b4 24 44 a0 00 	lea    0xa044(%rsp),%rsi
  40228f:	00 
  402290:	48 8b 39             	mov    (%rcx),%rdi
  402293:	e8 b8 ea ff ff       	callq  400d50 <bcopy@plt>
  402298:	0f b7 44 24 14       	movzwl 0x14(%rsp),%eax
  40229d:	66 c1 c8 08          	ror    $0x8,%ax
  4022a1:	66 89 84 24 42 a0 00 	mov    %ax,0xa042(%rsp)
  4022a8:	00 
  4022a9:	ba 10 00 00 00       	mov    $0x10,%edx
  4022ae:	4c 89 e6             	mov    %r12,%rsi
  4022b1:	89 ef                	mov    %ebp,%edi
  4022b3:	e8 08 eb ff ff       	callq  400dc0 <connect@plt>
  4022b8:	85 c0                	test   %eax,%eax
  4022ba:	0f 88 02 02 00 00    	js     4024c2 <submitr+0x2d6>
  4022c0:	48 c7 c6 ff ff ff ff 	mov    $0xffffffffffffffff,%rsi
  4022c7:	b8 00 00 00 00       	mov    $0x0,%eax
  4022cc:	48 89 f1             	mov    %rsi,%rcx
  4022cf:	4c 89 f7             	mov    %r14,%rdi
  4022d2:	f2 ae                	repnz scas %es:(%rdi),%al
  4022d4:	48 f7 d1             	not    %rcx
  4022d7:	48 89 ca             	mov    %rcx,%rdx
  4022da:	48 89 f1             	mov    %rsi,%rcx
  4022dd:	4c 89 ff             	mov    %r15,%rdi
  4022e0:	f2 ae                	repnz scas %es:(%rdi),%al
  4022e2:	48 f7 d1             	not    %rcx
  4022e5:	49 89 c8             	mov    %rcx,%r8
  4022e8:	48 89 f1             	mov    %rsi,%rcx
  4022eb:	48 8b 7c 24 08       	mov    0x8(%rsp),%rdi
  4022f0:	f2 ae                	repnz scas %es:(%rdi),%al
  4022f2:	48 f7 d1             	not    %rcx
  4022f5:	4d 8d 44 08 fe       	lea    -0x2(%r8,%rcx,1),%r8
  4022fa:	48 89 f1             	mov    %rsi,%rcx
  4022fd:	48 8b 7c 24 18       	mov    0x18(%rsp),%rdi
  402302:	f2 ae                	repnz scas %es:(%rdi),%al
  402304:	48 89 c8             	mov    %rcx,%rax
  402307:	48 f7 d0             	not    %rax
  40230a:	49 8d 4c 00 ff       	lea    -0x1(%r8,%rax,1),%rcx
  40230f:	48 8d 44 52 fd       	lea    -0x3(%rdx,%rdx,2),%rax
  402314:	48 8d 84 01 80 00 00 	lea    0x80(%rcx,%rax,1),%rax
  40231b:	00 
  40231c:	48 3d 00 20 00 00    	cmp    $0x2000,%rax
  402322:	0f 87 f3 01 00 00    	ja     40251b <submitr+0x32f>
  402328:	48 8d b4 24 30 40 00 	lea    0x4030(%rsp),%rsi
  40232f:	00 
  402330:	b9 00 04 00 00       	mov    $0x400,%ecx
  402335:	b8 00 00 00 00       	mov    $0x0,%eax
  40233a:	48 89 f7             	mov    %rsi,%rdi
  40233d:	f3 48 ab             	rep stos %rax,%es:(%rdi)
  402340:	4c 89 f7             	mov    %r14,%rdi
  402343:	e8 60 fc ff ff       	callq  401fa8 <urlencode>
  402348:	85 c0                	test   %eax,%eax
  40234a:	0f 88 3d 02 00 00    	js     40258d <submitr+0x3a1>
  402350:	4c 8d a4 24 30 60 00 	lea    0x6030(%rsp),%r12
  402357:	00 
  402358:	4d 89 e9             	mov    %r13,%r9
  40235b:	4c 8d 84 24 30 40 00 	lea    0x4030(%rsp),%r8
  402362:	00 
  402363:	4c 89 f9             	mov    %r15,%rcx
  402366:	48 8b 54 24 08       	mov    0x8(%rsp),%rdx
  40236b:	48 8d 35 26 10 00 00 	lea    0x1026(%rip),%rsi        # 403398 <trans_char+0x38>
  402372:	4c 89 e7             	mov    %r12,%rdi
  402375:	b8 00 00 00 00       	mov    $0x0,%eax
  40237a:	e8 21 ea ff ff       	callq  400da0 <sprintf@plt>
  40237f:	b8 00 00 00 00       	mov    $0x0,%eax
  402384:	48 c7 c1 ff ff ff ff 	mov    $0xffffffffffffffff,%rcx
  40238b:	4c 89 e7             	mov    %r12,%rdi
  40238e:	f2 ae                	repnz scas %es:(%rdi),%al
  402390:	48 f7 d1             	not    %rcx
  402393:	48 8d 51 ff          	lea    -0x1(%rcx),%rdx
  402397:	4c 89 e6             	mov    %r12,%rsi
  40239a:	89 ef                	mov    %ebp,%edi
  40239c:	e8 e3 fc ff ff       	callq  402084 <rio_writen>
  4023a1:	48 85 c0             	test   %rax,%rax
  4023a4:	0f 88 6d 02 00 00    	js     402617 <submitr+0x42b>
  4023aa:	4c 8d a4 24 30 80 00 	lea    0x8030(%rsp),%r12
  4023b1:	00 
  4023b2:	89 ee                	mov    %ebp,%esi
  4023b4:	4c 89 e7             	mov    %r12,%rdi
  4023b7:	e8 af fb ff ff       	callq  401f6b <rio_readinitb>
  4023bc:	48 8d b4 24 30 60 00 	lea    0x6030(%rsp),%rsi
  4023c3:	00 
  4023c4:	ba 00 20 00 00       	mov    $0x2000,%edx
  4023c9:	4c 89 e7             	mov    %r12,%rdi
  4023cc:	e8 9c fd ff ff       	callq  40216d <rio_readlineb>
  4023d1:	48 85 c0             	test   %rax,%rax
  4023d4:	0f 8e ab 02 00 00    	jle    402685 <submitr+0x499>
  4023da:	48 8d 8c 24 2c 20 00 	lea    0x202c(%rsp),%rcx
  4023e1:	00 
  4023e2:	48 8d 94 24 30 20 00 	lea    0x2030(%rsp),%rdx
  4023e9:	00 
  4023ea:	48 8d bc 24 30 60 00 	lea    0x6030(%rsp),%rdi
  4023f1:	00 
  4023f2:	4c 8d 44 24 20       	lea    0x20(%rsp),%r8
  4023f7:	48 8d 35 11 10 00 00 	lea    0x1011(%rip),%rsi        # 40340f <trans_char+0xaf>
  4023fe:	b8 00 00 00 00       	mov    $0x0,%eax
  402403:	e8 28 e9 ff ff       	callq  400d30 <__isoc99_sscanf@plt>
  402408:	e9 9f 03 00 00       	jmpq   4027ac <submitr+0x5c0>
  40240d:	48 b8 45 72 72 6f 72 	movabs $0x43203a726f727245,%rax
  402414:	3a 20 43 
  402417:	48 89 03             	mov    %rax,(%rbx)
  40241a:	48 b8 6c 69 65 6e 74 	movabs $0x6e7520746e65696c,%rax
  402421:	20 75 6e 
  402424:	48 89 43 08          	mov    %rax,0x8(%rbx)
  402428:	48 b8 61 62 6c 65 20 	movabs $0x206f7420656c6261,%rax
  40242f:	74 6f 20 
  402432:	48 89 43 10          	mov    %rax,0x10(%rbx)
  402436:	48 b8 63 72 65 61 74 	movabs $0x7320657461657263,%rax
  40243d:	65 20 73 
  402440:	48 89 43 18          	mov    %rax,0x18(%rbx)
  402444:	c7 43 20 6f 63 6b 65 	movl   $0x656b636f,0x20(%rbx)
  40244b:	66 c7 43 24 74 00    	movw   $0x74,0x24(%rbx)
  402451:	b8 ff ff ff ff       	mov    $0xffffffff,%eax
  402456:	e9 18 03 00 00       	jmpq   402773 <submitr+0x587>
  40245b:	48 b8 45 72 72 6f 72 	movabs $0x44203a726f727245,%rax
  402462:	3a 20 44 
  402465:	48 89 03             	mov    %rax,(%rbx)
  402468:	48 b8 4e 53 20 69 73 	movabs $0x6e7520736920534e,%rax
  40246f:	20 75 6e 
  402472:	48 89 43 08          	mov    %rax,0x8(%rbx)
  402476:	48 b8 61 62 6c 65 20 	movabs $0x206f7420656c6261,%rax
  40247d:	74 6f 20 
  402480:	48 89 43 10          	mov    %rax,0x10(%rbx)
  402484:	48 b8 72 65 73 6f 6c 	movabs $0x2065766c6f736572,%rax
  40248b:	76 65 20 
  40248e:	48 89 43 18          	mov    %rax,0x18(%rbx)
  402492:	48 b8 73 65 72 76 65 	movabs $0x6120726576726573,%rax
  402499:	72 20 61 
  40249c:	48 89 43 20          	mov    %rax,0x20(%rbx)
  4024a0:	c7 43 28 64 64 72 65 	movl   $0x65726464,0x28(%rbx)
  4024a7:	66 c7 43 2c 73 73    	movw   $0x7373,0x2c(%rbx)
  4024ad:	c6 43 2e 00          	movb   $0x0,0x2e(%rbx)
  4024b1:	89 ef                	mov    %ebp,%edi
  4024b3:	e8 d8 e7 ff ff       	callq  400c90 <close@plt>
  4024b8:	b8 ff ff ff ff       	mov    $0xffffffff,%eax
  4024bd:	e9 b1 02 00 00       	jmpq   402773 <submitr+0x587>
  4024c2:	48 b8 45 72 72 6f 72 	movabs $0x55203a726f727245,%rax
  4024c9:	3a 20 55 
  4024cc:	48 89 03             	mov    %rax,(%rbx)
  4024cf:	48 b8 6e 61 62 6c 65 	movabs $0x6f7420656c62616e,%rax
  4024d6:	20 74 6f 
  4024d9:	48 89 43 08          	mov    %rax,0x8(%rbx)
  4024dd:	48 b8 20 63 6f 6e 6e 	movabs $0x7463656e6e6f6320,%rax
  4024e4:	65 63 74 
  4024e7:	48 89 43 10          	mov    %rax,0x10(%rbx)
  4024eb:	48 b8 20 74 6f 20 74 	movabs $0x20656874206f7420,%rax
  4024f2:	68 65 20 
  4024f5:	48 89 43 18          	mov    %rax,0x18(%rbx)
  4024f9:	c7 43 20 73 65 72 76 	movl   $0x76726573,0x20(%rbx)
  402500:	66 c7 43 24 65 72    	movw   $0x7265,0x24(%rbx)
  402506:	c6 43 26 00          	movb   $0x0,0x26(%rbx)
  40250a:	89 ef                	mov    %ebp,%edi
  40250c:	e8 7f e7 ff ff       	callq  400c90 <close@plt>
  402511:	b8 ff ff ff ff       	mov    $0xffffffff,%eax
  402516:	e9 58 02 00 00       	jmpq   402773 <submitr+0x587>
  40251b:	48 b8 45 72 72 6f 72 	movabs $0x52203a726f727245,%rax
  402522:	3a 20 52 
  402525:	48 89 03             	mov    %rax,(%rbx)
  402528:	48 b8 65 73 75 6c 74 	movabs $0x747320746c757365,%rax
  40252f:	20 73 74 
  402532:	48 89 43 08          	mov    %rax,0x8(%rbx)
  402536:	48 b8 72 69 6e 67 20 	movabs $0x6f6f7420676e6972,%rax
  40253d:	74 6f 6f 
  402540:	48 89 43 10          	mov    %rax,0x10(%rbx)
  402544:	48 b8 20 6c 61 72 67 	movabs $0x202e656772616c20,%rax
  40254b:	65 2e 20 
  40254e:	48 89 43 18          	mov    %rax,0x18(%rbx)
  402552:	48 b8 49 6e 63 72 65 	movabs $0x6573616572636e49,%rax
  402559:	61 73 65 
  40255c:	48 89 43 20          	mov    %rax,0x20(%rbx)
  402560:	48 b8 20 53 55 42 4d 	movabs $0x5254494d42555320,%rax
  402567:	49 54 52 
  40256a:	48 89 43 28          	mov    %rax,0x28(%rbx)
  40256e:	48 b8 5f 4d 41 58 42 	movabs $0x46554258414d5f,%rax
  402575:	55 46 00 
  402578:	48 89 43 30          	mov    %rax,0x30(%rbx)
  40257c:	89 ef                	mov    %ebp,%edi
  40257e:	e8 0d e7 ff ff       	callq  400c90 <close@plt>
  402583:	b8 ff ff ff ff       	mov    $0xffffffff,%eax
  402588:	e9 e6 01 00 00       	jmpq   402773 <submitr+0x587>
  40258d:	48 b8 45 72 72 6f 72 	movabs $0x52203a726f727245,%rax
  402594:	3a 20 52 
  402597:	48 89 03             	mov    %rax,(%rbx)
  40259a:	48 b8 65 73 75 6c 74 	movabs $0x747320746c757365,%rax
  4025a1:	20 73 74 
  4025a4:	48 89 43 08          	mov    %rax,0x8(%rbx)
  4025a8:	48 b8 72 69 6e 67 20 	movabs $0x6e6f6320676e6972,%rax
  4025af:	63 6f 6e 
  4025b2:	48 89 43 10          	mov    %rax,0x10(%rbx)
  4025b6:	48 b8 74 61 69 6e 73 	movabs $0x6e6120736e696174,%rax
  4025bd:	20 61 6e 
  4025c0:	48 89 43 18          	mov    %rax,0x18(%rbx)
  4025c4:	48 b8 20 69 6c 6c 65 	movabs $0x6c6167656c6c6920,%rax
  4025cb:	67 61 6c 
  4025ce:	48 89 43 20          	mov    %rax,0x20(%rbx)
  4025d2:	48 b8 20 6f 72 20 75 	movabs $0x72706e7520726f20,%rax
  4025d9:	6e 70 72 
  4025dc:	48 89 43 28          	mov    %rax,0x28(%rbx)
  4025e0:	48 b8 69 6e 74 61 62 	movabs $0x20656c6261746e69,%rax
  4025e7:	6c 65 20 
  4025ea:	48 89 43 30          	mov    %rax,0x30(%rbx)
  4025ee:	48 b8 63 68 61 72 61 	movabs $0x6574636172616863,%rax
  4025f5:	63 74 65 
  4025f8:	48 89 43 38          	mov    %rax,0x38(%rbx)
  4025fc:	66 c7 43 40 72 2e    	movw   $0x2e72,0x40(%rbx)
  402602:	c6 43 42 00          	movb   $0x0,0x42(%rbx)
  402606:	89 ef                	mov    %ebp,%edi
  402608:	e8 83 e6 ff ff       	callq  400c90 <close@plt>
  40260d:	b8 ff ff ff ff       	mov    $0xffffffff,%eax
  402612:	e9 5c 01 00 00       	jmpq   402773 <submitr+0x587>
  402617:	48 b8 45 72 72 6f 72 	movabs $0x43203a726f727245,%rax
  40261e:	3a 20 43 
  402621:	48 89 03             	mov    %rax,(%rbx)
  402624:	48 b8 6c 69 65 6e 74 	movabs $0x6e7520746e65696c,%rax
  40262b:	20 75 6e 
  40262e:	48 89 43 08          	mov    %rax,0x8(%rbx)
  402632:	48 b8 61 62 6c 65 20 	movabs $0x206f7420656c6261,%rax
  402639:	74 6f 20 
  40263c:	48 89 43 10          	mov    %rax,0x10(%rbx)
  402640:	48 b8 77 72 69 74 65 	movabs $0x6f74206574697277,%rax
  402647:	20 74 6f 
  40264a:	48 89 43 18          	mov    %rax,0x18(%rbx)
  40264e:	48 b8 20 74 68 65 20 	movabs $0x7365722065687420,%rax
  402655:	72 65 73 
  402658:	48 89 43 20          	mov    %rax,0x20(%rbx)
  40265c:	48 b8 75 6c 74 20 73 	movabs $0x7672657320746c75,%rax
  402663:	65 72 76 
  402666:	48 89 43 28          	mov    %rax,0x28(%rbx)
  40266a:	66 c7 43 30 65 72    	movw   $0x7265,0x30(%rbx)
  402670:	c6 43 32 00          	movb   $0x0,0x32(%rbx)
  402674:	89 ef                	mov    %ebp,%edi
  402676:	e8 15 e6 ff ff       	callq  400c90 <close@plt>
  40267b:	b8 ff ff ff ff       	mov    $0xffffffff,%eax
  402680:	e9 ee 00 00 00       	jmpq   402773 <submitr+0x587>
  402685:	48 b8 45 72 72 6f 72 	movabs $0x43203a726f727245,%rax
  40268c:	3a 20 43 
  40268f:	48 89 03             	mov    %rax,(%rbx)
  402692:	48 b8 6c 69 65 6e 74 	movabs $0x6e7520746e65696c,%rax
  402699:	20 75 6e 
  40269c:	48 89 43 08          	mov    %rax,0x8(%rbx)
  4026a0:	48 b8 61 62 6c 65 20 	movabs $0x206f7420656c6261,%rax
  4026a7:	74 6f 20 
  4026aa:	48 89 43 10          	mov    %rax,0x10(%rbx)
  4026ae:	48 b8 72 65 61 64 20 	movabs $0x7269662064616572,%rax
  4026b5:	66 69 72 
  4026b8:	48 89 43 18          	mov    %rax,0x18(%rbx)
  4026bc:	48 b8 73 74 20 68 65 	movabs $0x6564616568207473,%rax
  4026c3:	61 64 65 
  4026c6:	48 89 43 20          	mov    %rax,0x20(%rbx)
  4026ca:	48 b8 72 20 66 72 6f 	movabs $0x72206d6f72662072,%rax
  4026d1:	6d 20 72 
  4026d4:	48 89 43 28          	mov    %rax,0x28(%rbx)
  4026d8:	48 b8 65 73 75 6c 74 	movabs $0x657320746c757365,%rax
  4026df:	20 73 65 
  4026e2:	48 89 43 30          	mov    %rax,0x30(%rbx)
  4026e6:	c7 43 38 72 76 65 72 	movl   $0x72657672,0x38(%rbx)
  4026ed:	c6 43 3c 00          	movb   $0x0,0x3c(%rbx)
  4026f1:	89 ef                	mov    %ebp,%edi
  4026f3:	e8 98 e5 ff ff       	callq  400c90 <close@plt>
  4026f8:	b8 ff ff ff ff       	mov    $0xffffffff,%eax
  4026fd:	eb 74                	jmp    402773 <submitr+0x587>
  4026ff:	48 b8 45 72 72 6f 72 	movabs $0x43203a726f727245,%rax
  402706:	3a 20 43 
  402709:	48 89 03             	mov    %rax,(%rbx)
  40270c:	48 b8 6c 69 65 6e 74 	movabs $0x6e7520746e65696c,%rax
  402713:	20 75 6e 
  402716:	48 89 43 08          	mov    %rax,0x8(%rbx)
  40271a:	48 b8 61 62 6c 65 20 	movabs $0x206f7420656c6261,%rax
  402721:	74 6f 20 
  402724:	48 89 43 10          	mov    %rax,0x10(%rbx)
  402728:	48 b8 72 65 61 64 20 	movabs $0x6165682064616572,%rax
  40272f:	68 65 61 
  402732:	48 89 43 18          	mov    %rax,0x18(%rbx)
  402736:	48 b8 64 65 72 73 20 	movabs $0x6f72662073726564,%rax
  40273d:	66 72 6f 
  402740:	48 89 43 20          	mov    %rax,0x20(%rbx)
  402744:	48 b8 6d 20 74 68 65 	movabs $0x657220656874206d,%rax
  40274b:	20 72 65 
  40274e:	48 89 43 28          	mov    %rax,0x28(%rbx)
  402752:	48 b8 73 75 6c 74 20 	movabs $0x72657320746c7573,%rax
  402759:	73 65 72 
  40275c:	48 89 43 30          	mov    %rax,0x30(%rbx)
  402760:	c7 43 38 76 65 72 00 	movl   $0x726576,0x38(%rbx)
  402767:	89 ef                	mov    %ebp,%edi
  402769:	e8 22 e5 ff ff       	callq  400c90 <close@plt>
  40276e:	b8 ff ff ff ff       	mov    $0xffffffff,%eax
  402773:	48 81 c4 58 a0 00 00 	add    $0xa058,%rsp
  40277a:	5b                   	pop    %rbx
  40277b:	5d                   	pop    %rbp
  40277c:	41 5c                	pop    %r12
  40277e:	41 5d                	pop    %r13
  402780:	41 5e                	pop    %r14
  402782:	41 5f                	pop    %r15
  402784:	c3                   	retq   
  402785:	85 c0                	test   %eax,%eax
  402787:	74 51                	je     4027da <submitr+0x5ee>
  402789:	48 8d b4 24 30 60 00 	lea    0x6030(%rsp),%rsi
  402790:	00 
  402791:	48 8d bc 24 30 80 00 	lea    0x8030(%rsp),%rdi
  402798:	00 
  402799:	ba 00 20 00 00       	mov    $0x2000,%edx
  40279e:	e8 ca f9 ff ff       	callq  40216d <rio_readlineb>
  4027a3:	48 85 c0             	test   %rax,%rax
  4027a6:	0f 8e 53 ff ff ff    	jle    4026ff <submitr+0x513>
  4027ac:	0f b6 94 24 30 60 00 	movzbl 0x6030(%rsp),%edx
  4027b3:	00 
  4027b4:	b8 0d 00 00 00       	mov    $0xd,%eax
  4027b9:	29 d0                	sub    %edx,%eax
  4027bb:	75 c8                	jne    402785 <submitr+0x599>
  4027bd:	0f b6 94 24 31 60 00 	movzbl 0x6031(%rsp),%edx
  4027c4:	00 
  4027c5:	b8 0a 00 00 00       	mov    $0xa,%eax
  4027ca:	29 d0                	sub    %edx,%eax
  4027cc:	75 b7                	jne    402785 <submitr+0x599>
  4027ce:	0f b6 84 24 32 60 00 	movzbl 0x6032(%rsp),%eax
  4027d5:	00 
  4027d6:	f7 d8                	neg    %eax
  4027d8:	eb ab                	jmp    402785 <submitr+0x599>
  4027da:	48 8d b4 24 30 60 00 	lea    0x6030(%rsp),%rsi
  4027e1:	00 
  4027e2:	48 8d bc 24 30 80 00 	lea    0x8030(%rsp),%rdi
  4027e9:	00 
  4027ea:	ba 00 20 00 00       	mov    $0x2000,%edx
  4027ef:	e8 79 f9 ff ff       	callq  40216d <rio_readlineb>
  4027f4:	48 85 c0             	test   %rax,%rax
  4027f7:	7e 67                	jle    402860 <submitr+0x674>
  4027f9:	8b 94 24 2c 20 00 00 	mov    0x202c(%rsp),%edx
  402800:	81 fa c8 00 00 00    	cmp    $0xc8,%edx
  402806:	0f 85 d7 00 00 00    	jne    4028e3 <submitr+0x6f7>
  40280c:	48 8d b4 24 30 60 00 	lea    0x6030(%rsp),%rsi
  402813:	00 
  402814:	48 89 df             	mov    %rbx,%rdi
  402817:	e8 04 e4 ff ff       	callq  400c20 <strcpy@plt>
  40281c:	89 ef                	mov    %ebp,%edi
  40281e:	e8 6d e4 ff ff       	callq  400c90 <close@plt>
  402823:	0f b6 03             	movzbl (%rbx),%eax
  402826:	ba 4f 00 00 00       	mov    $0x4f,%edx
  40282b:	29 c2                	sub    %eax,%edx
  40282d:	0f 85 da 00 00 00    	jne    40290d <submitr+0x721>
  402833:	0f b6 4b 01          	movzbl 0x1(%rbx),%ecx
  402837:	b8 4b 00 00 00       	mov    $0x4b,%eax
  40283c:	29 c8                	sub    %ecx,%eax
  40283e:	0f 85 cb 00 00 00    	jne    40290f <submitr+0x723>
  402844:	0f b6 4b 02          	movzbl 0x2(%rbx),%ecx
  402848:	b8 0a 00 00 00       	mov    $0xa,%eax
  40284d:	29 c8                	sub    %ecx,%eax
  40284f:	0f 85 ba 00 00 00    	jne    40290f <submitr+0x723>
  402855:	0f b6 43 03          	movzbl 0x3(%rbx),%eax
  402859:	f7 d8                	neg    %eax
  40285b:	e9 af 00 00 00       	jmpq   40290f <submitr+0x723>
  402860:	48 b8 45 72 72 6f 72 	movabs $0x43203a726f727245,%rax
  402867:	3a 20 43 
  40286a:	48 89 03             	mov    %rax,(%rbx)
  40286d:	48 b8 6c 69 65 6e 74 	movabs $0x6e7520746e65696c,%rax
  402874:	20 75 6e 
  402877:	48 89 43 08          	mov    %rax,0x8(%rbx)
  40287b:	48 b8 61 62 6c 65 20 	movabs $0x206f7420656c6261,%rax
  402882:	74 6f 20 
  402885:	48 89 43 10          	mov    %rax,0x10(%rbx)
  402889:	48 b8 72 65 61 64 20 	movabs $0x6174732064616572,%rax
  402890:	73 74 61 
  402893:	48 89 43 18          	mov    %rax,0x18(%rbx)
  402897:	48 b8 74 75 73 20 6d 	movabs $0x7373656d20737574,%rax
  40289e:	65 73 73 
  4028a1:	48 89 43 20          	mov    %rax,0x20(%rbx)
  4028a5:	48 b8 61 67 65 20 66 	movabs $0x6d6f726620656761,%rax
  4028ac:	72 6f 6d 
  4028af:	48 89 43 28          	mov    %rax,0x28(%rbx)
  4028b3:	48 b8 20 72 65 73 75 	movabs $0x20746c7573657220,%rax
  4028ba:	6c 74 20 
  4028bd:	48 89 43 30          	mov    %rax,0x30(%rbx)
  4028c1:	c7 43 38 73 65 72 76 	movl   $0x76726573,0x38(%rbx)
  4028c8:	66 c7 43 3c 65 72    	movw   $0x7265,0x3c(%rbx)
  4028ce:	c6 43 3e 00          	movb   $0x0,0x3e(%rbx)
  4028d2:	89 ef                	mov    %ebp,%edi
  4028d4:	e8 b7 e3 ff ff       	callq  400c90 <close@plt>
  4028d9:	b8 ff ff ff ff       	mov    $0xffffffff,%eax
  4028de:	e9 90 fe ff ff       	jmpq   402773 <submitr+0x587>
  4028e3:	48 8d 4c 24 20       	lea    0x20(%rsp),%rcx
  4028e8:	48 8d 35 e9 0a 00 00 	lea    0xae9(%rip),%rsi        # 4033d8 <trans_char+0x78>
  4028ef:	48 89 df             	mov    %rbx,%rdi
  4028f2:	b8 00 00 00 00       	mov    $0x0,%eax
  4028f7:	e8 a4 e4 ff ff       	callq  400da0 <sprintf@plt>
  4028fc:	89 ef                	mov    %ebp,%edi
  4028fe:	e8 8d e3 ff ff       	callq  400c90 <close@plt>
  402903:	b8 ff ff ff ff       	mov    $0xffffffff,%eax
  402908:	e9 66 fe ff ff       	jmpq   402773 <submitr+0x587>
  40290d:	89 d0                	mov    %edx,%eax
  40290f:	f7 d8                	neg    %eax
  402911:	0f 84 5c fe ff ff    	je     402773 <submitr+0x587>
  402917:	b9 05 00 00 00       	mov    $0x5,%ecx
  40291c:	48 8d 3d fd 0a 00 00 	lea    0xafd(%rip),%rdi        # 403420 <trans_char+0xc0>
  402923:	48 89 de             	mov    %rbx,%rsi
  402926:	f3 a6                	repz cmpsb %es:(%rdi),%ds:(%rsi)
  402928:	0f 97 c0             	seta   %al
  40292b:	0f 92 c1             	setb   %cl
  40292e:	29 c8                	sub    %ecx,%eax
  402930:	0f be c0             	movsbl %al,%eax
  402933:	85 c0                	test   %eax,%eax
  402935:	0f 84 38 fe ff ff    	je     402773 <submitr+0x587>
  40293b:	85 d2                	test   %edx,%edx
  40293d:	75 13                	jne    402952 <submitr+0x766>
  40293f:	0f b6 43 01          	movzbl 0x1(%rbx),%eax
  402943:	ba 4b 00 00 00       	mov    $0x4b,%edx
  402948:	29 c2                	sub    %eax,%edx
  40294a:	75 06                	jne    402952 <submitr+0x766>
  40294c:	0f b6 53 02          	movzbl 0x2(%rbx),%edx
  402950:	f7 da                	neg    %edx
  402952:	89 d0                	mov    %edx,%eax
  402954:	f7 d8                	neg    %eax
  402956:	0f 84 17 fe ff ff    	je     402773 <submitr+0x587>
  40295c:	b8 ff ff ff ff       	mov    $0xffffffff,%eax
  402961:	e9 0d fe ff ff       	jmpq   402773 <submitr+0x587>

0000000000402966 <init_timeout>:
  402966:	85 ff                	test   %edi,%edi
  402968:	74 20                	je     40298a <init_timeout+0x24>
  40296a:	53                   	push   %rbx
  40296b:	89 fb                	mov    %edi,%ebx
  40296d:	85 ff                	test   %edi,%edi
  40296f:	78 1b                	js     40298c <init_timeout+0x26>
  402971:	48 8d 35 05 f6 ff ff 	lea    -0x9fb(%rip),%rsi        # 401f7d <sigalrm_handler>
  402978:	bf 0e 00 00 00       	mov    $0xe,%edi
  40297d:	e8 2e e3 ff ff       	callq  400cb0 <signal@plt>
  402982:	89 df                	mov    %ebx,%edi
  402984:	e8 f7 e2 ff ff       	callq  400c80 <alarm@plt>
  402989:	5b                   	pop    %rbx
  40298a:	f3 c3                	repz retq 
  40298c:	bb 00 00 00 00       	mov    $0x0,%ebx
  402991:	eb de                	jmp    402971 <init_timeout+0xb>

0000000000402993 <init_driver>:
  402993:	41 54                	push   %r12
  402995:	55                   	push   %rbp
  402996:	53                   	push   %rbx
  402997:	48 83 ec 10          	sub    $0x10,%rsp
  40299b:	48 89 fd             	mov    %rdi,%rbp
  40299e:	be 01 00 00 00       	mov    $0x1,%esi
  4029a3:	bf 0d 00 00 00       	mov    $0xd,%edi
  4029a8:	e8 03 e3 ff ff       	callq  400cb0 <signal@plt>
  4029ad:	be 01 00 00 00       	mov    $0x1,%esi
  4029b2:	bf 1d 00 00 00       	mov    $0x1d,%edi
  4029b7:	e8 f4 e2 ff ff       	callq  400cb0 <signal@plt>
  4029bc:	be 01 00 00 00       	mov    $0x1,%esi
  4029c1:	bf 1d 00 00 00       	mov    $0x1d,%edi
  4029c6:	e8 e5 e2 ff ff       	callq  400cb0 <signal@plt>
  4029cb:	ba 00 00 00 00       	mov    $0x0,%edx
  4029d0:	be 01 00 00 00       	mov    $0x1,%esi
  4029d5:	bf 02 00 00 00       	mov    $0x2,%edi
  4029da:	e8 f1 e3 ff ff       	callq  400dd0 <socket@plt>
  4029df:	85 c0                	test   %eax,%eax
  4029e1:	0f 88 80 00 00 00    	js     402a67 <init_driver+0xd4>
  4029e7:	89 c3                	mov    %eax,%ebx
  4029e9:	48 8d 3d 35 0a 00 00 	lea    0xa35(%rip),%rdi        # 403425 <trans_char+0xc5>
  4029f0:	e8 cb e2 ff ff       	callq  400cc0 <gethostbyname@plt>
  4029f5:	48 85 c0             	test   %rax,%rax
  4029f8:	0f 84 b5 00 00 00    	je     402ab3 <init_driver+0x120>
  4029fe:	48 c7 04 24 00 00 00 	movq   $0x0,(%rsp)
  402a05:	00 
  402a06:	48 c7 44 24 08 00 00 	movq   $0x0,0x8(%rsp)
  402a0d:	00 00 
  402a0f:	66 c7 04 24 02 00    	movw   $0x2,(%rsp)
  402a15:	48 8b 48 18          	mov    0x18(%rax),%rcx
  402a19:	48 63 50 14          	movslq 0x14(%rax),%rdx
  402a1d:	48 8d 74 24 04       	lea    0x4(%rsp),%rsi
  402a22:	48 8b 39             	mov    (%rcx),%rdi
  402a25:	e8 26 e3 ff ff       	callq  400d50 <bcopy@plt>
  402a2a:	66 c7 44 24 02 3c a4 	movw   $0xa43c,0x2(%rsp)
  402a31:	ba 10 00 00 00       	mov    $0x10,%edx
  402a36:	48 89 e6             	mov    %rsp,%rsi
  402a39:	89 df                	mov    %ebx,%edi
  402a3b:	e8 80 e3 ff ff       	callq  400dc0 <connect@plt>
  402a40:	85 c0                	test   %eax,%eax
  402a42:	0f 88 d3 00 00 00    	js     402b1b <init_driver+0x188>
  402a48:	89 df                	mov    %ebx,%edi
  402a4a:	e8 41 e2 ff ff       	callq  400c90 <close@plt>
  402a4f:	66 c7 45 00 4f 4b    	movw   $0x4b4f,0x0(%rbp)
  402a55:	c6 45 02 00          	movb   $0x0,0x2(%rbp)
  402a59:	b8 00 00 00 00       	mov    $0x0,%eax
  402a5e:	48 83 c4 10          	add    $0x10,%rsp
  402a62:	5b                   	pop    %rbx
  402a63:	5d                   	pop    %rbp
  402a64:	41 5c                	pop    %r12
  402a66:	c3                   	retq   
  402a67:	48 b8 45 72 72 6f 72 	movabs $0x43203a726f727245,%rax
  402a6e:	3a 20 43 
  402a71:	48 89 45 00          	mov    %rax,0x0(%rbp)
  402a75:	48 b8 6c 69 65 6e 74 	movabs $0x6e7520746e65696c,%rax
  402a7c:	20 75 6e 
  402a7f:	48 89 45 08          	mov    %rax,0x8(%rbp)
  402a83:	48 b8 61 62 6c 65 20 	movabs $0x206f7420656c6261,%rax
  402a8a:	74 6f 20 
  402a8d:	48 89 45 10          	mov    %rax,0x10(%rbp)
  402a91:	48 b8 63 72 65 61 74 	movabs $0x7320657461657263,%rax
  402a98:	65 20 73 
  402a9b:	48 89 45 18          	mov    %rax,0x18(%rbp)
  402a9f:	c7 45 20 6f 63 6b 65 	movl   $0x656b636f,0x20(%rbp)
  402aa6:	66 c7 45 24 74 00    	movw   $0x74,0x24(%rbp)
  402aac:	b8 ff ff ff ff       	mov    $0xffffffff,%eax
  402ab1:	eb ab                	jmp    402a5e <init_driver+0xcb>
  402ab3:	48 b8 45 72 72 6f 72 	movabs $0x44203a726f727245,%rax
  402aba:	3a 20 44 
  402abd:	48 89 45 00          	mov    %rax,0x0(%rbp)
  402ac1:	48 b8 4e 53 20 69 73 	movabs $0x6e7520736920534e,%rax
  402ac8:	20 75 6e 
  402acb:	48 89 45 08          	mov    %rax,0x8(%rbp)
  402acf:	48 b8 61 62 6c 65 20 	movabs $0x206f7420656c6261,%rax
  402ad6:	74 6f 20 
  402ad9:	48 89 45 10          	mov    %rax,0x10(%rbp)
  402add:	48 b8 72 65 73 6f 6c 	movabs $0x2065766c6f736572,%rax
  402ae4:	76 65 20 
  402ae7:	48 89 45 18          	mov    %rax,0x18(%rbp)
  402aeb:	48 b8 73 65 72 76 65 	movabs $0x6120726576726573,%rax
  402af2:	72 20 61 
  402af5:	48 89 45 20          	mov    %rax,0x20(%rbp)
  402af9:	c7 45 28 64 64 72 65 	movl   $0x65726464,0x28(%rbp)
  402b00:	66 c7 45 2c 73 73    	movw   $0x7373,0x2c(%rbp)
  402b06:	c6 45 2e 00          	movb   $0x0,0x2e(%rbp)
  402b0a:	89 df                	mov    %ebx,%edi
  402b0c:	e8 7f e1 ff ff       	callq  400c90 <close@plt>
  402b11:	b8 ff ff ff ff       	mov    $0xffffffff,%eax
  402b16:	e9 43 ff ff ff       	jmpq   402a5e <init_driver+0xcb>
  402b1b:	48 b8 45 72 72 6f 72 	movabs $0x55203a726f727245,%rax
  402b22:	3a 20 55 
  402b25:	48 89 45 00          	mov    %rax,0x0(%rbp)
  402b29:	48 b8 6e 61 62 6c 65 	movabs $0x6f7420656c62616e,%rax
  402b30:	20 74 6f 
  402b33:	48 89 45 08          	mov    %rax,0x8(%rbp)
  402b37:	48 b8 20 63 6f 6e 6e 	movabs $0x7463656e6e6f6320,%rax
  402b3e:	65 63 74 
  402b41:	48 89 45 10          	mov    %rax,0x10(%rbp)
  402b45:	48 b8 20 74 6f 20 73 	movabs $0x76726573206f7420,%rax
  402b4c:	65 72 76 
  402b4f:	48 89 45 18          	mov    %rax,0x18(%rbp)
  402b53:	66 c7 45 20 65 72    	movw   $0x7265,0x20(%rbp)
  402b59:	c6 45 22 00          	movb   $0x0,0x22(%rbp)
  402b5d:	89 df                	mov    %ebx,%edi
  402b5f:	e8 2c e1 ff ff       	callq  400c90 <close@plt>
  402b64:	b8 ff ff ff ff       	mov    $0xffffffff,%eax
  402b69:	e9 f0 fe ff ff       	jmpq   402a5e <init_driver+0xcb>

0000000000402b6e <driver_post>:
  402b6e:	53                   	push   %rbx
  402b6f:	4c 89 cb             	mov    %r9,%rbx
  402b72:	45 85 c0             	test   %r8d,%r8d
  402b75:	75 18                	jne    402b8f <driver_post+0x21>
  402b77:	48 85 ff             	test   %rdi,%rdi
  402b7a:	74 05                	je     402b81 <driver_post+0x13>
  402b7c:	80 3f 00             	cmpb   $0x0,(%rdi)
  402b7f:	75 32                	jne    402bb3 <driver_post+0x45>
  402b81:	66 c7 03 4f 4b       	movw   $0x4b4f,(%rbx)
  402b86:	c6 43 02 00          	movb   $0x0,0x2(%rbx)
  402b8a:	44 89 c0             	mov    %r8d,%eax
  402b8d:	5b                   	pop    %rbx
  402b8e:	c3                   	retq   
  402b8f:	48 89 ce             	mov    %rcx,%rsi
  402b92:	48 8d 3d 9a 08 00 00 	lea    0x89a(%rip),%rdi        # 403433 <trans_char+0xd3>
  402b99:	b8 00 00 00 00       	mov    $0x0,%eax
  402b9e:	e8 bd e0 ff ff       	callq  400c60 <printf@plt>
  402ba3:	66 c7 03 4f 4b       	movw   $0x4b4f,(%rbx)
  402ba8:	c6 43 02 00          	movb   $0x0,0x2(%rbx)
  402bac:	b8 00 00 00 00       	mov    $0x0,%eax
  402bb1:	eb da                	jmp    402b8d <driver_post+0x1f>
  402bb3:	48 83 ec 08          	sub    $0x8,%rsp
  402bb7:	41 51                	push   %r9
  402bb9:	49 89 c9             	mov    %rcx,%r9
  402bbc:	49 89 d0             	mov    %rdx,%r8
  402bbf:	48 89 f9             	mov    %rdi,%rcx
  402bc2:	48 89 f2             	mov    %rsi,%rdx
  402bc5:	be a4 3c 00 00       	mov    $0x3ca4,%esi
  402bca:	48 8d 3d 54 08 00 00 	lea    0x854(%rip),%rdi        # 403425 <trans_char+0xc5>
  402bd1:	e8 16 f6 ff ff       	callq  4021ec <submitr>
  402bd6:	48 83 c4 10          	add    $0x10,%rsp
  402bda:	eb b1                	jmp    402b8d <driver_post+0x1f>

0000000000402bdc <check>:
  402bdc:	89 f8                	mov    %edi,%eax
  402bde:	c1 e8 1c             	shr    $0x1c,%eax
  402be1:	85 c0                	test   %eax,%eax
  402be3:	74 1d                	je     402c02 <check+0x26>
  402be5:	b9 00 00 00 00       	mov    $0x0,%ecx
  402bea:	83 f9 1f             	cmp    $0x1f,%ecx
  402bed:	7f 0d                	jg     402bfc <check+0x20>
  402bef:	89 f8                	mov    %edi,%eax
  402bf1:	d3 e8                	shr    %cl,%eax
  402bf3:	3c 0a                	cmp    $0xa,%al
  402bf5:	74 11                	je     402c08 <check+0x2c>
  402bf7:	83 c1 08             	add    $0x8,%ecx
  402bfa:	eb ee                	jmp    402bea <check+0xe>
  402bfc:	b8 01 00 00 00       	mov    $0x1,%eax
  402c01:	c3                   	retq   
  402c02:	b8 00 00 00 00       	mov    $0x0,%eax
  402c07:	c3                   	retq   
  402c08:	b8 00 00 00 00       	mov    $0x0,%eax
  402c0d:	c3                   	retq   

0000000000402c0e <gencookie>:
  402c0e:	53                   	push   %rbx
  402c0f:	83 c7 01             	add    $0x1,%edi
  402c12:	e8 e9 df ff ff       	callq  400c00 <srandom@plt>
  402c17:	e8 f4 e0 ff ff       	callq  400d10 <random@plt>
  402c1c:	89 c3                	mov    %eax,%ebx
  402c1e:	89 c7                	mov    %eax,%edi
  402c20:	e8 b7 ff ff ff       	callq  402bdc <check>
  402c25:	85 c0                	test   %eax,%eax
  402c27:	74 ee                	je     402c17 <gencookie+0x9>
  402c29:	89 d8                	mov    %ebx,%eax
  402c2b:	5b                   	pop    %rbx
  402c2c:	c3                   	retq   
  402c2d:	0f 1f 00             	nopl   (%rax)

0000000000402c30 <__libc_csu_init>:
  402c30:	41 57                	push   %r15
  402c32:	41 56                	push   %r14
  402c34:	41 89 ff             	mov    %edi,%r15d
  402c37:	41 55                	push   %r13
  402c39:	41 54                	push   %r12
  402c3b:	4c 8d 25 c6 11 20 00 	lea    0x2011c6(%rip),%r12        # 603e08 <__frame_dummy_init_array_entry>
  402c42:	55                   	push   %rbp
  402c43:	48 8d 2d c6 11 20 00 	lea    0x2011c6(%rip),%rbp        # 603e10 <__init_array_end>
  402c4a:	53                   	push   %rbx
  402c4b:	49 89 f6             	mov    %rsi,%r14
  402c4e:	49 89 d5             	mov    %rdx,%r13
  402c51:	4c 29 e5             	sub    %r12,%rbp
  402c54:	48 83 ec 08          	sub    $0x8,%rsp
  402c58:	48 c1 fd 03          	sar    $0x3,%rbp
  402c5c:	e8 4f df ff ff       	callq  400bb0 <_init>
  402c61:	48 85 ed             	test   %rbp,%rbp
  402c64:	74 20                	je     402c86 <__libc_csu_init+0x56>
  402c66:	31 db                	xor    %ebx,%ebx
  402c68:	0f 1f 84 00 00 00 00 	nopl   0x0(%rax,%rax,1)
  402c6f:	00 
  402c70:	4c 89 ea             	mov    %r13,%rdx
  402c73:	4c 89 f6             	mov    %r14,%rsi
  402c76:	44 89 ff             	mov    %r15d,%edi
  402c79:	41 ff 14 dc          	callq  *(%r12,%rbx,8)
  402c7d:	48 83 c3 01          	add    $0x1,%rbx
  402c81:	48 39 dd             	cmp    %rbx,%rbp
  402c84:	75 ea                	jne    402c70 <__libc_csu_init+0x40>
  402c86:	48 83 c4 08          	add    $0x8,%rsp
  402c8a:	5b                   	pop    %rbx
  402c8b:	5d                   	pop    %rbp
  402c8c:	41 5c                	pop    %r12
  402c8e:	41 5d                	pop    %r13
  402c90:	41 5e                	pop    %r14
  402c92:	41 5f                	pop    %r15
  402c94:	c3                   	retq   
  402c95:	90                   	nop
  402c96:	66 2e 0f 1f 84 00 00 	nopw   %cs:0x0(%rax,%rax,1)
  402c9d:	00 00 00 

0000000000402ca0 <__libc_csu_fini>:
  402ca0:	f3 c3                	repz retq 

Disassembly of section .fini:

0000000000402ca4 <_fini>:
  402ca4:	48 83 ec 08          	sub    $0x8,%rsp
  402ca8:	48 83 c4 08          	add    $0x8,%rsp
  402cac:	c3                   	retq   
