
rtarget：     文件格式 elf64-x86-64


Disassembly of section .init:

0000000000400bb0 <_init>:
  400bb0:	48 83 ec 08          	sub    $0x8,%rsp
  400bb4:	48 8b 05 3d 44 20 00 	mov    0x20443d(%rip),%rax        # 604ff8 <__gmon_start__>
  400bbb:	48 85 c0             	test   %rax,%rax
  400bbe:	74 02                	je     400bc2 <_init+0x12>
  400bc0:	ff d0                	callq  *%rax
  400bc2:	48 83 c4 08          	add    $0x8,%rsp
  400bc6:	c3                   	retq   

Disassembly of section .plt:

0000000000400bd0 <.plt>:
  400bd0:	ff 35 32 44 20 00    	pushq  0x204432(%rip)        # 605008 <_GLOBAL_OFFSET_TABLE_+0x8>
  400bd6:	ff 25 34 44 20 00    	jmpq   *0x204434(%rip)        # 605010 <_GLOBAL_OFFSET_TABLE_+0x10>
  400bdc:	0f 1f 40 00          	nopl   0x0(%rax)

0000000000400be0 <strcasecmp@plt>:
  400be0:	ff 25 32 44 20 00    	jmpq   *0x204432(%rip)        # 605018 <strcasecmp@GLIBC_2.2.5>
  400be6:	68 00 00 00 00       	pushq  $0x0
  400beb:	e9 e0 ff ff ff       	jmpq   400bd0 <.plt>

0000000000400bf0 <__errno_location@plt>:
  400bf0:	ff 25 2a 44 20 00    	jmpq   *0x20442a(%rip)        # 605020 <__errno_location@GLIBC_2.2.5>
  400bf6:	68 01 00 00 00       	pushq  $0x1
  400bfb:	e9 d0 ff ff ff       	jmpq   400bd0 <.plt>

0000000000400c00 <srandom@plt>:
  400c00:	ff 25 22 44 20 00    	jmpq   *0x204422(%rip)        # 605028 <srandom@GLIBC_2.2.5>
  400c06:	68 02 00 00 00       	pushq  $0x2
  400c0b:	e9 c0 ff ff ff       	jmpq   400bd0 <.plt>

0000000000400c10 <strncmp@plt>:
  400c10:	ff 25 1a 44 20 00    	jmpq   *0x20441a(%rip)        # 605030 <strncmp@GLIBC_2.2.5>
  400c16:	68 03 00 00 00       	pushq  $0x3
  400c1b:	e9 b0 ff ff ff       	jmpq   400bd0 <.plt>

0000000000400c20 <strcpy@plt>:
  400c20:	ff 25 12 44 20 00    	jmpq   *0x204412(%rip)        # 605038 <strcpy@GLIBC_2.2.5>
  400c26:	68 04 00 00 00       	pushq  $0x4
  400c2b:	e9 a0 ff ff ff       	jmpq   400bd0 <.plt>

0000000000400c30 <puts@plt>:
  400c30:	ff 25 0a 44 20 00    	jmpq   *0x20440a(%rip)        # 605040 <puts@GLIBC_2.2.5>
  400c36:	68 05 00 00 00       	pushq  $0x5
  400c3b:	e9 90 ff ff ff       	jmpq   400bd0 <.plt>

0000000000400c40 <write@plt>:
  400c40:	ff 25 02 44 20 00    	jmpq   *0x204402(%rip)        # 605048 <write@GLIBC_2.2.5>
  400c46:	68 06 00 00 00       	pushq  $0x6
  400c4b:	e9 80 ff ff ff       	jmpq   400bd0 <.plt>

0000000000400c50 <mmap@plt>:
  400c50:	ff 25 fa 43 20 00    	jmpq   *0x2043fa(%rip)        # 605050 <mmap@GLIBC_2.2.5>
  400c56:	68 07 00 00 00       	pushq  $0x7
  400c5b:	e9 70 ff ff ff       	jmpq   400bd0 <.plt>

0000000000400c60 <printf@plt>:
  400c60:	ff 25 f2 43 20 00    	jmpq   *0x2043f2(%rip)        # 605058 <printf@GLIBC_2.2.5>
  400c66:	68 08 00 00 00       	pushq  $0x8
  400c6b:	e9 60 ff ff ff       	jmpq   400bd0 <.plt>

0000000000400c70 <memset@plt>:
  400c70:	ff 25 ea 43 20 00    	jmpq   *0x2043ea(%rip)        # 605060 <memset@GLIBC_2.2.5>
  400c76:	68 09 00 00 00       	pushq  $0x9
  400c7b:	e9 50 ff ff ff       	jmpq   400bd0 <.plt>

0000000000400c80 <alarm@plt>:
  400c80:	ff 25 e2 43 20 00    	jmpq   *0x2043e2(%rip)        # 605068 <alarm@GLIBC_2.2.5>
  400c86:	68 0a 00 00 00       	pushq  $0xa
  400c8b:	e9 40 ff ff ff       	jmpq   400bd0 <.plt>

0000000000400c90 <close@plt>:
  400c90:	ff 25 da 43 20 00    	jmpq   *0x2043da(%rip)        # 605070 <close@GLIBC_2.2.5>
  400c96:	68 0b 00 00 00       	pushq  $0xb
  400c9b:	e9 30 ff ff ff       	jmpq   400bd0 <.plt>

0000000000400ca0 <read@plt>:
  400ca0:	ff 25 d2 43 20 00    	jmpq   *0x2043d2(%rip)        # 605078 <read@GLIBC_2.2.5>
  400ca6:	68 0c 00 00 00       	pushq  $0xc
  400cab:	e9 20 ff ff ff       	jmpq   400bd0 <.plt>

0000000000400cb0 <signal@plt>:
  400cb0:	ff 25 ca 43 20 00    	jmpq   *0x2043ca(%rip)        # 605080 <signal@GLIBC_2.2.5>
  400cb6:	68 0d 00 00 00       	pushq  $0xd
  400cbb:	e9 10 ff ff ff       	jmpq   400bd0 <.plt>

0000000000400cc0 <gethostbyname@plt>:
  400cc0:	ff 25 c2 43 20 00    	jmpq   *0x2043c2(%rip)        # 605088 <gethostbyname@GLIBC_2.2.5>
  400cc6:	68 0e 00 00 00       	pushq  $0xe
  400ccb:	e9 00 ff ff ff       	jmpq   400bd0 <.plt>

0000000000400cd0 <fprintf@plt>:
  400cd0:	ff 25 ba 43 20 00    	jmpq   *0x2043ba(%rip)        # 605090 <fprintf@GLIBC_2.2.5>
  400cd6:	68 0f 00 00 00       	pushq  $0xf
  400cdb:	e9 f0 fe ff ff       	jmpq   400bd0 <.plt>

0000000000400ce0 <strtol@plt>:
  400ce0:	ff 25 b2 43 20 00    	jmpq   *0x2043b2(%rip)        # 605098 <strtol@GLIBC_2.2.5>
  400ce6:	68 10 00 00 00       	pushq  $0x10
  400ceb:	e9 e0 fe ff ff       	jmpq   400bd0 <.plt>

0000000000400cf0 <memcpy@plt>:
  400cf0:	ff 25 aa 43 20 00    	jmpq   *0x2043aa(%rip)        # 6050a0 <memcpy@GLIBC_2.14>
  400cf6:	68 11 00 00 00       	pushq  $0x11
  400cfb:	e9 d0 fe ff ff       	jmpq   400bd0 <.plt>

0000000000400d00 <time@plt>:
  400d00:	ff 25 a2 43 20 00    	jmpq   *0x2043a2(%rip)        # 6050a8 <time@GLIBC_2.2.5>
  400d06:	68 12 00 00 00       	pushq  $0x12
  400d0b:	e9 c0 fe ff ff       	jmpq   400bd0 <.plt>

0000000000400d10 <random@plt>:
  400d10:	ff 25 9a 43 20 00    	jmpq   *0x20439a(%rip)        # 6050b0 <random@GLIBC_2.2.5>
  400d16:	68 13 00 00 00       	pushq  $0x13
  400d1b:	e9 b0 fe ff ff       	jmpq   400bd0 <.plt>

0000000000400d20 <_IO_getc@plt>:
  400d20:	ff 25 92 43 20 00    	jmpq   *0x204392(%rip)        # 6050b8 <_IO_getc@GLIBC_2.2.5>
  400d26:	68 14 00 00 00       	pushq  $0x14
  400d2b:	e9 a0 fe ff ff       	jmpq   400bd0 <.plt>

0000000000400d30 <__isoc99_sscanf@plt>:
  400d30:	ff 25 8a 43 20 00    	jmpq   *0x20438a(%rip)        # 6050c0 <__isoc99_sscanf@GLIBC_2.7>
  400d36:	68 15 00 00 00       	pushq  $0x15
  400d3b:	e9 90 fe ff ff       	jmpq   400bd0 <.plt>

0000000000400d40 <munmap@plt>:
  400d40:	ff 25 82 43 20 00    	jmpq   *0x204382(%rip)        # 6050c8 <munmap@GLIBC_2.2.5>
  400d46:	68 16 00 00 00       	pushq  $0x16
  400d4b:	e9 80 fe ff ff       	jmpq   400bd0 <.plt>

0000000000400d50 <bcopy@plt>:
  400d50:	ff 25 7a 43 20 00    	jmpq   *0x20437a(%rip)        # 6050d0 <bcopy@GLIBC_2.2.5>
  400d56:	68 17 00 00 00       	pushq  $0x17
  400d5b:	e9 70 fe ff ff       	jmpq   400bd0 <.plt>

0000000000400d60 <fopen@plt>:
  400d60:	ff 25 72 43 20 00    	jmpq   *0x204372(%rip)        # 6050d8 <fopen@GLIBC_2.2.5>
  400d66:	68 18 00 00 00       	pushq  $0x18
  400d6b:	e9 60 fe ff ff       	jmpq   400bd0 <.plt>

0000000000400d70 <getopt@plt>:
  400d70:	ff 25 6a 43 20 00    	jmpq   *0x20436a(%rip)        # 6050e0 <getopt@GLIBC_2.2.5>
  400d76:	68 19 00 00 00       	pushq  $0x19
  400d7b:	e9 50 fe ff ff       	jmpq   400bd0 <.plt>

0000000000400d80 <strtoul@plt>:
  400d80:	ff 25 62 43 20 00    	jmpq   *0x204362(%rip)        # 6050e8 <strtoul@GLIBC_2.2.5>
  400d86:	68 1a 00 00 00       	pushq  $0x1a
  400d8b:	e9 40 fe ff ff       	jmpq   400bd0 <.plt>

0000000000400d90 <gethostname@plt>:
  400d90:	ff 25 5a 43 20 00    	jmpq   *0x20435a(%rip)        # 6050f0 <gethostname@GLIBC_2.2.5>
  400d96:	68 1b 00 00 00       	pushq  $0x1b
  400d9b:	e9 30 fe ff ff       	jmpq   400bd0 <.plt>

0000000000400da0 <sprintf@plt>:
  400da0:	ff 25 52 43 20 00    	jmpq   *0x204352(%rip)        # 6050f8 <sprintf@GLIBC_2.2.5>
  400da6:	68 1c 00 00 00       	pushq  $0x1c
  400dab:	e9 20 fe ff ff       	jmpq   400bd0 <.plt>

0000000000400db0 <exit@plt>:
  400db0:	ff 25 4a 43 20 00    	jmpq   *0x20434a(%rip)        # 605100 <exit@GLIBC_2.2.5>
  400db6:	68 1d 00 00 00       	pushq  $0x1d
  400dbb:	e9 10 fe ff ff       	jmpq   400bd0 <.plt>

0000000000400dc0 <connect@plt>:
  400dc0:	ff 25 42 43 20 00    	jmpq   *0x204342(%rip)        # 605108 <connect@GLIBC_2.2.5>
  400dc6:	68 1e 00 00 00       	pushq  $0x1e
  400dcb:	e9 00 fe ff ff       	jmpq   400bd0 <.plt>

0000000000400dd0 <socket@plt>:
  400dd0:	ff 25 3a 43 20 00    	jmpq   *0x20433a(%rip)        # 605110 <socket@GLIBC_2.2.5>
  400dd6:	68 1f 00 00 00       	pushq  $0x1f
  400ddb:	e9 f0 fd ff ff       	jmpq   400bd0 <.plt>

Disassembly of section .text:

0000000000400de0 <_start>:
  400de0:	31 ed                	xor    %ebp,%ebp
  400de2:	49 89 d1             	mov    %rdx,%r9
  400de5:	5e                   	pop    %rsi
  400de6:	48 89 e2             	mov    %rsp,%rdx
  400de9:	48 83 e4 f0          	and    $0xfffffffffffffff0,%rsp
  400ded:	50                   	push   %rax
  400dee:	54                   	push   %rsp
  400def:	49 c7 c0 d0 2d 40 00 	mov    $0x402dd0,%r8
  400df6:	48 c7 c1 60 2d 40 00 	mov    $0x402d60,%rcx
  400dfd:	48 c7 c7 8d 10 40 00 	mov    $0x40108d,%rdi
  400e04:	ff 15 e6 41 20 00    	callq  *0x2041e6(%rip)        # 604ff0 <__libc_start_main@GLIBC_2.2.5>
  400e0a:	f4                   	hlt    
  400e0b:	0f 1f 44 00 00       	nopl   0x0(%rax,%rax,1)

0000000000400e10 <deregister_tm_clones>:
  400e10:	b8 97 54 60 00       	mov    $0x605497,%eax
  400e15:	55                   	push   %rbp
  400e16:	48 2d 90 54 60 00    	sub    $0x605490,%rax
  400e1c:	48 83 f8 0e          	cmp    $0xe,%rax
  400e20:	48 89 e5             	mov    %rsp,%rbp
  400e23:	76 1b                	jbe    400e40 <deregister_tm_clones+0x30>
  400e25:	b8 00 00 00 00       	mov    $0x0,%eax
  400e2a:	48 85 c0             	test   %rax,%rax
  400e2d:	74 11                	je     400e40 <deregister_tm_clones+0x30>
  400e2f:	5d                   	pop    %rbp
  400e30:	bf 90 54 60 00       	mov    $0x605490,%edi
  400e35:	ff e0                	jmpq   *%rax
  400e37:	66 0f 1f 84 00 00 00 	nopw   0x0(%rax,%rax,1)
  400e3e:	00 00 
  400e40:	5d                   	pop    %rbp
  400e41:	c3                   	retq   
  400e42:	0f 1f 40 00          	nopl   0x0(%rax)
  400e46:	66 2e 0f 1f 84 00 00 	nopw   %cs:0x0(%rax,%rax,1)
  400e4d:	00 00 00 

0000000000400e50 <register_tm_clones>:
  400e50:	be 90 54 60 00       	mov    $0x605490,%esi
  400e55:	55                   	push   %rbp
  400e56:	48 81 ee 90 54 60 00 	sub    $0x605490,%rsi
  400e5d:	48 c1 fe 03          	sar    $0x3,%rsi
  400e61:	48 89 e5             	mov    %rsp,%rbp
  400e64:	48 89 f0             	mov    %rsi,%rax
  400e67:	48 c1 e8 3f          	shr    $0x3f,%rax
  400e6b:	48 01 c6             	add    %rax,%rsi
  400e6e:	48 d1 fe             	sar    %rsi
  400e71:	74 15                	je     400e88 <register_tm_clones+0x38>
  400e73:	b8 00 00 00 00       	mov    $0x0,%eax
  400e78:	48 85 c0             	test   %rax,%rax
  400e7b:	74 0b                	je     400e88 <register_tm_clones+0x38>
  400e7d:	5d                   	pop    %rbp
  400e7e:	bf 90 54 60 00       	mov    $0x605490,%edi
  400e83:	ff e0                	jmpq   *%rax
  400e85:	0f 1f 00             	nopl   (%rax)
  400e88:	5d                   	pop    %rbp
  400e89:	c3                   	retq   
  400e8a:	66 0f 1f 44 00 00    	nopw   0x0(%rax,%rax,1)

0000000000400e90 <__do_global_dtors_aux>:
  400e90:	80 3d 31 46 20 00 00 	cmpb   $0x0,0x204631(%rip)        # 6054c8 <completed.6972>
  400e97:	75 11                	jne    400eaa <__do_global_dtors_aux+0x1a>
  400e99:	55                   	push   %rbp
  400e9a:	48 89 e5             	mov    %rsp,%rbp
  400e9d:	e8 6e ff ff ff       	callq  400e10 <deregister_tm_clones>
  400ea2:	5d                   	pop    %rbp
  400ea3:	c6 05 1e 46 20 00 01 	movb   $0x1,0x20461e(%rip)        # 6054c8 <completed.6972>
  400eaa:	f3 c3                	repz retq 
  400eac:	0f 1f 40 00          	nopl   0x0(%rax)

0000000000400eb0 <frame_dummy>:
  400eb0:	bf 18 4e 60 00       	mov    $0x604e18,%edi
  400eb5:	48 83 3f 00          	cmpq   $0x0,(%rdi)
  400eb9:	75 05                	jne    400ec0 <frame_dummy+0x10>
  400ebb:	eb 93                	jmp    400e50 <register_tm_clones>
  400ebd:	0f 1f 00             	nopl   (%rax)
  400ec0:	b8 00 00 00 00       	mov    $0x0,%eax
  400ec5:	48 85 c0             	test   %rax,%rax
  400ec8:	74 f1                	je     400ebb <frame_dummy+0xb>
  400eca:	55                   	push   %rbp
  400ecb:	48 89 e5             	mov    %rsp,%rbp
  400ece:	ff d0                	callq  *%rax
  400ed0:	5d                   	pop    %rbp
  400ed1:	e9 7a ff ff ff       	jmpq   400e50 <register_tm_clones>

0000000000400ed6 <usage>:
  400ed6:	48 83 ec 08          	sub    $0x8,%rsp
  400eda:	48 89 fe             	mov    %rdi,%rsi
  400edd:	83 3d 24 46 20 00 00 	cmpl   $0x0,0x204624(%rip)        # 605508 <is_checker>
  400ee4:	74 4b                	je     400f31 <usage+0x5b>
  400ee6:	48 8d 3d fb 1e 00 00 	lea    0x1efb(%rip),%rdi        # 402de8 <_IO_stdin_used+0x8>
  400eed:	b8 00 00 00 00       	mov    $0x0,%eax
  400ef2:	e8 69 fd ff ff       	callq  400c60 <printf@plt>
  400ef7:	48 8d 3d 22 1f 00 00 	lea    0x1f22(%rip),%rdi        # 402e20 <_IO_stdin_used+0x40>
  400efe:	e8 2d fd ff ff       	callq  400c30 <puts@plt>
  400f03:	48 8d 3d 4e 20 00 00 	lea    0x204e(%rip),%rdi        # 402f58 <_IO_stdin_used+0x178>
  400f0a:	e8 21 fd ff ff       	callq  400c30 <puts@plt>
  400f0f:	48 8d 3d 32 1f 00 00 	lea    0x1f32(%rip),%rdi        # 402e48 <_IO_stdin_used+0x68>
  400f16:	e8 15 fd ff ff       	callq  400c30 <puts@plt>
  400f1b:	48 8d 3d 50 20 00 00 	lea    0x2050(%rip),%rdi        # 402f72 <_IO_stdin_used+0x192>
  400f22:	e8 09 fd ff ff       	callq  400c30 <puts@plt>
  400f27:	bf 00 00 00 00       	mov    $0x0,%edi
  400f2c:	e8 7f fe ff ff       	callq  400db0 <exit@plt>
  400f31:	48 8d 3d 56 20 00 00 	lea    0x2056(%rip),%rdi        # 402f8e <_IO_stdin_used+0x1ae>
  400f38:	b8 00 00 00 00       	mov    $0x0,%eax
  400f3d:	e8 1e fd ff ff       	callq  400c60 <printf@plt>
  400f42:	48 8d 3d 27 1f 00 00 	lea    0x1f27(%rip),%rdi        # 402e70 <_IO_stdin_used+0x90>
  400f49:	e8 e2 fc ff ff       	callq  400c30 <puts@plt>
  400f4e:	48 8d 3d 43 1f 00 00 	lea    0x1f43(%rip),%rdi        # 402e98 <_IO_stdin_used+0xb8>
  400f55:	e8 d6 fc ff ff       	callq  400c30 <puts@plt>
  400f5a:	48 8d 3d 4b 20 00 00 	lea    0x204b(%rip),%rdi        # 402fac <_IO_stdin_used+0x1cc>
  400f61:	e8 ca fc ff ff       	callq  400c30 <puts@plt>
  400f66:	eb bf                	jmp    400f27 <usage+0x51>

0000000000400f68 <initialize_target>:
  400f68:	55                   	push   %rbp
  400f69:	53                   	push   %rbx
  400f6a:	48 81 ec 08 21 00 00 	sub    $0x2108,%rsp
  400f71:	89 f5                	mov    %esi,%ebp
  400f73:	89 3d 7f 45 20 00    	mov    %edi,0x20457f(%rip)        # 6054f8 <check_level>
  400f79:	8b 3d b1 41 20 00    	mov    0x2041b1(%rip),%edi        # 605130 <target_id>
  400f7f:	e8 b3 1d 00 00       	callq  402d37 <gencookie>
  400f84:	89 05 7a 45 20 00    	mov    %eax,0x20457a(%rip)        # 605504 <cookie>
  400f8a:	89 c7                	mov    %eax,%edi
  400f8c:	e8 a6 1d 00 00       	callq  402d37 <gencookie>
  400f91:	89 05 69 45 20 00    	mov    %eax,0x204569(%rip)        # 605500 <authkey>
  400f97:	8b 05 93 41 20 00    	mov    0x204193(%rip),%eax        # 605130 <target_id>
  400f9d:	8d 78 01             	lea    0x1(%rax),%edi
  400fa0:	e8 5b fc ff ff       	callq  400c00 <srandom@plt>
  400fa5:	e8 66 fd ff ff       	callq  400d10 <random@plt>
  400faa:	89 c7                	mov    %eax,%edi
  400fac:	e8 c3 02 00 00       	callq  401274 <scramble>
  400fb1:	89 c3                	mov    %eax,%ebx
  400fb3:	85 ed                	test   %ebp,%ebp
  400fb5:	75 3d                	jne    400ff4 <initialize_target+0x8c>
  400fb7:	b8 00 00 00 00       	mov    $0x0,%eax
  400fbc:	01 d8                	add    %ebx,%eax
  400fbe:	0f b7 c0             	movzwl %ax,%eax
  400fc1:	8d 04 c5 00 01 00 00 	lea    0x100(,%rax,8),%eax
  400fc8:	89 c0                	mov    %eax,%eax
  400fca:	48 89 05 af 44 20 00 	mov    %rax,0x2044af(%rip)        # 605480 <buf_offset>
  400fd1:	c6 05 50 51 20 00 72 	movb   $0x72,0x205150(%rip)        # 606128 <target_prefix>
  400fd8:	83 3d a9 44 20 00 00 	cmpl   $0x0,0x2044a9(%rip)        # 605488 <notify>
  400fdf:	74 09                	je     400fea <initialize_target+0x82>
  400fe1:	83 3d 20 45 20 00 00 	cmpl   $0x0,0x204520(%rip)        # 605508 <is_checker>
  400fe8:	74 22                	je     40100c <initialize_target+0xa4>
  400fea:	48 81 c4 08 21 00 00 	add    $0x2108,%rsp
  400ff1:	5b                   	pop    %rbx
  400ff2:	5d                   	pop    %rbp
  400ff3:	c3                   	retq   
  400ff4:	bf 00 00 00 00       	mov    $0x0,%edi
  400ff9:	e8 02 fd ff ff       	callq  400d00 <time@plt>
  400ffe:	89 c7                	mov    %eax,%edi
  401000:	e8 fb fb ff ff       	callq  400c00 <srandom@plt>
  401005:	e8 06 fd ff ff       	callq  400d10 <random@plt>
  40100a:	eb b0                	jmp    400fbc <initialize_target+0x54>
  40100c:	48 89 e7             	mov    %rsp,%rdi
  40100f:	be 00 01 00 00       	mov    $0x100,%esi
  401014:	e8 77 fd ff ff       	callq  400d90 <gethostname@plt>
  401019:	89 c3                	mov    %eax,%ebx
  40101b:	85 c0                	test   %eax,%eax
  40101d:	75 24                	jne    401043 <initialize_target+0xdb>
  40101f:	48 63 c3             	movslq %ebx,%rax
  401022:	48 8d 15 37 41 20 00 	lea    0x204137(%rip),%rdx        # 605160 <host_table>
  401029:	48 8b 3c c2          	mov    (%rdx,%rax,8),%rdi
  40102d:	48 85 ff             	test   %rdi,%rdi
  401030:	74 27                	je     401059 <initialize_target+0xf1>
  401032:	48 89 e6             	mov    %rsp,%rsi
  401035:	e8 a6 fb ff ff       	callq  400be0 <strcasecmp@plt>
  40103a:	85 c0                	test   %eax,%eax
  40103c:	74 1b                	je     401059 <initialize_target+0xf1>
  40103e:	83 c3 01             	add    $0x1,%ebx
  401041:	eb dc                	jmp    40101f <initialize_target+0xb7>
  401043:	48 8d 3d 7e 1e 00 00 	lea    0x1e7e(%rip),%rdi        # 402ec8 <_IO_stdin_used+0xe8>
  40104a:	e8 e1 fb ff ff       	callq  400c30 <puts@plt>
  40104f:	bf 08 00 00 00       	mov    $0x8,%edi
  401054:	e8 57 fd ff ff       	callq  400db0 <exit@plt>
  401059:	48 8d bc 24 00 01 00 	lea    0x100(%rsp),%rdi
  401060:	00 
  401061:	e8 56 1a 00 00       	callq  402abc <init_driver>
  401066:	85 c0                	test   %eax,%eax
  401068:	79 80                	jns    400fea <initialize_target+0x82>
  40106a:	48 8d b4 24 00 01 00 	lea    0x100(%rsp),%rsi
  401071:	00 
  401072:	48 8d 3d 87 1e 00 00 	lea    0x1e87(%rip),%rdi        # 402f00 <_IO_stdin_used+0x120>
  401079:	b8 00 00 00 00       	mov    $0x0,%eax
  40107e:	e8 dd fb ff ff       	callq  400c60 <printf@plt>
  401083:	bf 08 00 00 00       	mov    $0x8,%edi
  401088:	e8 23 fd ff ff       	callq  400db0 <exit@plt>

000000000040108d <main>:
  40108d:	41 56                	push   %r14
  40108f:	41 55                	push   %r13
  401091:	41 54                	push   %r12
  401093:	55                   	push   %rbp
  401094:	53                   	push   %rbx
  401095:	41 89 fc             	mov    %edi,%r12d
  401098:	48 89 f3             	mov    %rsi,%rbx
  40109b:	48 c7 c6 62 1e 40 00 	mov    $0x401e62,%rsi
  4010a2:	bf 0b 00 00 00       	mov    $0xb,%edi
  4010a7:	e8 04 fc ff ff       	callq  400cb0 <signal@plt>
  4010ac:	48 c7 c6 0e 1e 40 00 	mov    $0x401e0e,%rsi
  4010b3:	bf 07 00 00 00       	mov    $0x7,%edi
  4010b8:	e8 f3 fb ff ff       	callq  400cb0 <signal@plt>
  4010bd:	48 c7 c6 b6 1e 40 00 	mov    $0x401eb6,%rsi
  4010c4:	bf 04 00 00 00       	mov    $0x4,%edi
  4010c9:	e8 e2 fb ff ff       	callq  400cb0 <signal@plt>
  4010ce:	83 3d 33 44 20 00 00 	cmpl   $0x0,0x204433(%rip)        # 605508 <is_checker>
  4010d5:	75 58                	jne    40112f <main+0xa2>
  4010d7:	48 8d 2d e7 1e 00 00 	lea    0x1ee7(%rip),%rbp        # 402fc5 <_IO_stdin_used+0x1e5>
  4010de:	48 8b 05 bb 43 20 00 	mov    0x2043bb(%rip),%rax        # 6054a0 <stdin@@GLIBC_2.2.5>
  4010e5:	48 89 05 04 44 20 00 	mov    %rax,0x204404(%rip)        # 6054f0 <infile>
  4010ec:	41 bd 00 00 00 00    	mov    $0x0,%r13d
  4010f2:	41 be 00 00 00 00    	mov    $0x0,%r14d
  4010f8:	48 89 ea             	mov    %rbp,%rdx
  4010fb:	48 89 de             	mov    %rbx,%rsi
  4010fe:	44 89 e7             	mov    %r12d,%edi
  401101:	e8 6a fc ff ff       	callq  400d70 <getopt@plt>
  401106:	3c ff                	cmp    $0xff,%al
  401108:	0f 84 f8 00 00 00    	je     401206 <main+0x179>
  40110e:	0f be f0             	movsbl %al,%esi
  401111:	83 e8 61             	sub    $0x61,%eax
  401114:	3c 10                	cmp    $0x10,%al
  401116:	0f 87 d1 00 00 00    	ja     4011ed <main+0x160>
  40111c:	0f b6 c0             	movzbl %al,%eax
  40111f:	48 8d 15 ea 1e 00 00 	lea    0x1eea(%rip),%rdx        # 403010 <_IO_stdin_used+0x230>
  401126:	48 63 04 82          	movslq (%rdx,%rax,4),%rax
  40112a:	48 01 d0             	add    %rdx,%rax
  40112d:	ff e0                	jmpq   *%rax
  40112f:	48 c7 c6 0a 1f 40 00 	mov    $0x401f0a,%rsi
  401136:	bf 0e 00 00 00       	mov    $0xe,%edi
  40113b:	e8 70 fb ff ff       	callq  400cb0 <signal@plt>
  401140:	bf 05 00 00 00       	mov    $0x5,%edi
  401145:	e8 36 fb ff ff       	callq  400c80 <alarm@plt>
  40114a:	48 8d 2d 79 1e 00 00 	lea    0x1e79(%rip),%rbp        # 402fca <_IO_stdin_used+0x1ea>
  401151:	eb 8b                	jmp    4010de <main+0x51>
  401153:	48 8b 3b             	mov    (%rbx),%rdi
  401156:	e8 7b fd ff ff       	callq  400ed6 <usage>
  40115b:	48 8d 35 f3 20 00 00 	lea    0x20f3(%rip),%rsi        # 403255 <_IO_stdin_used+0x475>
  401162:	48 8b 3d 3f 43 20 00 	mov    0x20433f(%rip),%rdi        # 6054a8 <optarg@@GLIBC_2.2.5>
  401169:	e8 f2 fb ff ff       	callq  400d60 <fopen@plt>
  40116e:	48 89 05 7b 43 20 00 	mov    %rax,0x20437b(%rip)        # 6054f0 <infile>
  401175:	48 85 c0             	test   %rax,%rax
  401178:	0f 85 7a ff ff ff    	jne    4010f8 <main+0x6b>
  40117e:	48 8b 15 23 43 20 00 	mov    0x204323(%rip),%rdx        # 6054a8 <optarg@@GLIBC_2.2.5>
  401185:	48 8d 35 46 1e 00 00 	lea    0x1e46(%rip),%rsi        # 402fd2 <_IO_stdin_used+0x1f2>
  40118c:	48 8b 3d 2d 43 20 00 	mov    0x20432d(%rip),%rdi        # 6054c0 <stderr@@GLIBC_2.2.5>
  401193:	e8 38 fb ff ff       	callq  400cd0 <fprintf@plt>
  401198:	b8 01 00 00 00       	mov    $0x1,%eax
  40119d:	e9 c9 00 00 00       	jmpq   40126b <main+0x1de>
  4011a2:	ba 10 00 00 00       	mov    $0x10,%edx
  4011a7:	be 00 00 00 00       	mov    $0x0,%esi
  4011ac:	48 8b 3d f5 42 20 00 	mov    0x2042f5(%rip),%rdi        # 6054a8 <optarg@@GLIBC_2.2.5>
  4011b3:	e8 c8 fb ff ff       	callq  400d80 <strtoul@plt>
  4011b8:	41 89 c6             	mov    %eax,%r14d
  4011bb:	e9 38 ff ff ff       	jmpq   4010f8 <main+0x6b>
  4011c0:	ba 0a 00 00 00       	mov    $0xa,%edx
  4011c5:	be 00 00 00 00       	mov    $0x0,%esi
  4011ca:	48 8b 3d d7 42 20 00 	mov    0x2042d7(%rip),%rdi        # 6054a8 <optarg@@GLIBC_2.2.5>
  4011d1:	e8 0a fb ff ff       	callq  400ce0 <strtol@plt>
  4011d6:	41 89 c5             	mov    %eax,%r13d
  4011d9:	e9 1a ff ff ff       	jmpq   4010f8 <main+0x6b>
  4011de:	c7 05 a0 42 20 00 00 	movl   $0x0,0x2042a0(%rip)        # 605488 <notify>
  4011e5:	00 00 00 
  4011e8:	e9 0b ff ff ff       	jmpq   4010f8 <main+0x6b>
  4011ed:	48 8d 3d fb 1d 00 00 	lea    0x1dfb(%rip),%rdi        # 402fef <_IO_stdin_used+0x20f>
  4011f4:	b8 00 00 00 00       	mov    $0x0,%eax
  4011f9:	e8 62 fa ff ff       	callq  400c60 <printf@plt>
  4011fe:	48 8b 3b             	mov    (%rbx),%rdi
  401201:	e8 d0 fc ff ff       	callq  400ed6 <usage>
  401206:	be 01 00 00 00       	mov    $0x1,%esi
  40120b:	44 89 ef             	mov    %r13d,%edi
  40120e:	e8 55 fd ff ff       	callq  400f68 <initialize_target>
  401213:	83 3d ee 42 20 00 00 	cmpl   $0x0,0x2042ee(%rip)        # 605508 <is_checker>
  40121a:	74 27                	je     401243 <main+0x1b6>
  40121c:	44 3b 35 dd 42 20 00 	cmp    0x2042dd(%rip),%r14d        # 605500 <authkey>
  401223:	74 1e                	je     401243 <main+0x1b6>
  401225:	44 89 f6             	mov    %r14d,%esi
  401228:	48 8d 3d f9 1c 00 00 	lea    0x1cf9(%rip),%rdi        # 402f28 <_IO_stdin_used+0x148>
  40122f:	b8 00 00 00 00       	mov    $0x0,%eax
  401234:	e8 27 fa ff ff       	callq  400c60 <printf@plt>
  401239:	b8 00 00 00 00       	mov    $0x0,%eax
  40123e:	e8 9b 08 00 00       	callq  401ade <check_fail>
  401243:	8b 35 bb 42 20 00    	mov    0x2042bb(%rip),%esi        # 605504 <cookie>
  401249:	48 8d 3d b2 1d 00 00 	lea    0x1db2(%rip),%rdi        # 403002 <_IO_stdin_used+0x222>
  401250:	b8 00 00 00 00       	mov    $0x0,%eax
  401255:	e8 06 fa ff ff       	callq  400c60 <printf@plt>
  40125a:	48 8b 3d 1f 42 20 00 	mov    0x20421f(%rip),%rdi        # 605480 <buf_offset>
  401261:	e8 f6 0c 00 00       	callq  401f5c <launch>
  401266:	b8 00 00 00 00       	mov    $0x0,%eax
  40126b:	5b                   	pop    %rbx
  40126c:	5d                   	pop    %rbp
  40126d:	41 5c                	pop    %r12
  40126f:	41 5d                	pop    %r13
  401271:	41 5e                	pop    %r14
  401273:	c3                   	retq   

0000000000401274 <scramble>:
  401274:	b8 00 00 00 00       	mov    $0x0,%eax
  401279:	eb 11                	jmp    40128c <scramble+0x18>
  40127b:	69 d0 0a fc 00 00    	imul   $0xfc0a,%eax,%edx
  401281:	01 fa                	add    %edi,%edx
  401283:	89 c1                	mov    %eax,%ecx
  401285:	89 54 8c d0          	mov    %edx,-0x30(%rsp,%rcx,4)
  401289:	83 c0 01             	add    $0x1,%eax
  40128c:	83 f8 09             	cmp    $0x9,%eax
  40128f:	76 ea                	jbe    40127b <scramble+0x7>
  401291:	8b 44 24 e0          	mov    -0x20(%rsp),%eax
  401295:	69 c0 58 aa 00 00    	imul   $0xaa58,%eax,%eax
  40129b:	89 44 24 e0          	mov    %eax,-0x20(%rsp)
  40129f:	8b 44 24 dc          	mov    -0x24(%rsp),%eax
  4012a3:	69 c0 5a c0 00 00    	imul   $0xc05a,%eax,%eax
  4012a9:	89 44 24 dc          	mov    %eax,-0x24(%rsp)
  4012ad:	8b 44 24 e0          	mov    -0x20(%rsp),%eax
  4012b1:	69 c0 3b 74 00 00    	imul   $0x743b,%eax,%eax
  4012b7:	89 44 24 e0          	mov    %eax,-0x20(%rsp)
  4012bb:	8b 44 24 d8          	mov    -0x28(%rsp),%eax
  4012bf:	69 c0 3a 37 00 00    	imul   $0x373a,%eax,%eax
  4012c5:	89 44 24 d8          	mov    %eax,-0x28(%rsp)
  4012c9:	8b 44 24 dc          	mov    -0x24(%rsp),%eax
  4012cd:	69 c0 ec 8f 00 00    	imul   $0x8fec,%eax,%eax
  4012d3:	89 44 24 dc          	mov    %eax,-0x24(%rsp)
  4012d7:	8b 44 24 f0          	mov    -0x10(%rsp),%eax
  4012db:	69 c0 f1 13 00 00    	imul   $0x13f1,%eax,%eax
  4012e1:	89 44 24 f0          	mov    %eax,-0x10(%rsp)
  4012e5:	8b 44 24 d4          	mov    -0x2c(%rsp),%eax
  4012e9:	69 c0 ad 85 00 00    	imul   $0x85ad,%eax,%eax
  4012ef:	89 44 24 d4          	mov    %eax,-0x2c(%rsp)
  4012f3:	8b 44 24 d4          	mov    -0x2c(%rsp),%eax
  4012f7:	69 c0 ed 8d 00 00    	imul   $0x8ded,%eax,%eax
  4012fd:	89 44 24 d4          	mov    %eax,-0x2c(%rsp)
  401301:	8b 44 24 d0          	mov    -0x30(%rsp),%eax
  401305:	69 c0 25 59 00 00    	imul   $0x5925,%eax,%eax
  40130b:	89 44 24 d0          	mov    %eax,-0x30(%rsp)
  40130f:	8b 44 24 d0          	mov    -0x30(%rsp),%eax
  401313:	69 c0 f9 17 00 00    	imul   $0x17f9,%eax,%eax
  401319:	89 44 24 d0          	mov    %eax,-0x30(%rsp)
  40131d:	8b 44 24 e8          	mov    -0x18(%rsp),%eax
  401321:	69 c0 7f d2 00 00    	imul   $0xd27f,%eax,%eax
  401327:	89 44 24 e8          	mov    %eax,-0x18(%rsp)
  40132b:	8b 44 24 ec          	mov    -0x14(%rsp),%eax
  40132f:	69 c0 60 ba 00 00    	imul   $0xba60,%eax,%eax
  401335:	89 44 24 ec          	mov    %eax,-0x14(%rsp)
  401339:	8b 44 24 f4          	mov    -0xc(%rsp),%eax
  40133d:	69 c0 12 f3 00 00    	imul   $0xf312,%eax,%eax
  401343:	89 44 24 f4          	mov    %eax,-0xc(%rsp)
  401347:	8b 44 24 d8          	mov    -0x28(%rsp),%eax
  40134b:	69 c0 19 ea 00 00    	imul   $0xea19,%eax,%eax
  401351:	89 44 24 d8          	mov    %eax,-0x28(%rsp)
  401355:	8b 44 24 d0          	mov    -0x30(%rsp),%eax
  401359:	69 c0 10 89 00 00    	imul   $0x8910,%eax,%eax
  40135f:	89 44 24 d0          	mov    %eax,-0x30(%rsp)
  401363:	8b 44 24 e0          	mov    -0x20(%rsp),%eax
  401367:	69 c0 40 c9 00 00    	imul   $0xc940,%eax,%eax
  40136d:	89 44 24 e0          	mov    %eax,-0x20(%rsp)
  401371:	8b 44 24 e0          	mov    -0x20(%rsp),%eax
  401375:	69 c0 2f a4 00 00    	imul   $0xa42f,%eax,%eax
  40137b:	89 44 24 e0          	mov    %eax,-0x20(%rsp)
  40137f:	8b 44 24 e8          	mov    -0x18(%rsp),%eax
  401383:	69 c0 17 27 00 00    	imul   $0x2717,%eax,%eax
  401389:	89 44 24 e8          	mov    %eax,-0x18(%rsp)
  40138d:	8b 44 24 d8          	mov    -0x28(%rsp),%eax
  401391:	69 c0 d8 da 00 00    	imul   $0xdad8,%eax,%eax
  401397:	89 44 24 d8          	mov    %eax,-0x28(%rsp)
  40139b:	8b 44 24 d0          	mov    -0x30(%rsp),%eax
  40139f:	69 c0 4a 43 00 00    	imul   $0x434a,%eax,%eax
  4013a5:	89 44 24 d0          	mov    %eax,-0x30(%rsp)
  4013a9:	8b 44 24 e4          	mov    -0x1c(%rsp),%eax
  4013ad:	69 c0 d3 e1 00 00    	imul   $0xe1d3,%eax,%eax
  4013b3:	89 44 24 e4          	mov    %eax,-0x1c(%rsp)
  4013b7:	8b 44 24 d0          	mov    -0x30(%rsp),%eax
  4013bb:	69 c0 b0 c0 00 00    	imul   $0xc0b0,%eax,%eax
  4013c1:	89 44 24 d0          	mov    %eax,-0x30(%rsp)
  4013c5:	8b 44 24 ec          	mov    -0x14(%rsp),%eax
  4013c9:	69 c0 c0 a4 00 00    	imul   $0xa4c0,%eax,%eax
  4013cf:	89 44 24 ec          	mov    %eax,-0x14(%rsp)
  4013d3:	8b 44 24 d4          	mov    -0x2c(%rsp),%eax
  4013d7:	69 c0 73 87 00 00    	imul   $0x8773,%eax,%eax
  4013dd:	89 44 24 d4          	mov    %eax,-0x2c(%rsp)
  4013e1:	8b 44 24 e0          	mov    -0x20(%rsp),%eax
  4013e5:	69 c0 67 de 00 00    	imul   $0xde67,%eax,%eax
  4013eb:	89 44 24 e0          	mov    %eax,-0x20(%rsp)
  4013ef:	8b 44 24 f0          	mov    -0x10(%rsp),%eax
  4013f3:	69 c0 14 de 00 00    	imul   $0xde14,%eax,%eax
  4013f9:	89 44 24 f0          	mov    %eax,-0x10(%rsp)
  4013fd:	8b 44 24 e8          	mov    -0x18(%rsp),%eax
  401401:	69 c0 54 61 00 00    	imul   $0x6154,%eax,%eax
  401407:	89 44 24 e8          	mov    %eax,-0x18(%rsp)
  40140b:	8b 44 24 ec          	mov    -0x14(%rsp),%eax
  40140f:	69 c0 8e 73 00 00    	imul   $0x738e,%eax,%eax
  401415:	89 44 24 ec          	mov    %eax,-0x14(%rsp)
  401419:	8b 44 24 ec          	mov    -0x14(%rsp),%eax
  40141d:	69 c0 09 e5 00 00    	imul   $0xe509,%eax,%eax
  401423:	89 44 24 ec          	mov    %eax,-0x14(%rsp)
  401427:	8b 44 24 d0          	mov    -0x30(%rsp),%eax
  40142b:	69 c0 9d 21 00 00    	imul   $0x219d,%eax,%eax
  401431:	89 44 24 d0          	mov    %eax,-0x30(%rsp)
  401435:	8b 44 24 e4          	mov    -0x1c(%rsp),%eax
  401439:	69 c0 c4 ab 00 00    	imul   $0xabc4,%eax,%eax
  40143f:	89 44 24 e4          	mov    %eax,-0x1c(%rsp)
  401443:	8b 44 24 dc          	mov    -0x24(%rsp),%eax
  401447:	69 c0 82 a1 00 00    	imul   $0xa182,%eax,%eax
  40144d:	89 44 24 dc          	mov    %eax,-0x24(%rsp)
  401451:	8b 44 24 e8          	mov    -0x18(%rsp),%eax
  401455:	69 c0 77 74 00 00    	imul   $0x7477,%eax,%eax
  40145b:	89 44 24 e8          	mov    %eax,-0x18(%rsp)
  40145f:	8b 44 24 f4          	mov    -0xc(%rsp),%eax
  401463:	69 c0 5d 68 00 00    	imul   $0x685d,%eax,%eax
  401469:	89 44 24 f4          	mov    %eax,-0xc(%rsp)
  40146d:	8b 44 24 e0          	mov    -0x20(%rsp),%eax
  401471:	69 c0 ec 26 00 00    	imul   $0x26ec,%eax,%eax
  401477:	89 44 24 e0          	mov    %eax,-0x20(%rsp)
  40147b:	8b 44 24 f4          	mov    -0xc(%rsp),%eax
  40147f:	69 c0 14 ba 00 00    	imul   $0xba14,%eax,%eax
  401485:	89 44 24 f4          	mov    %eax,-0xc(%rsp)
  401489:	8b 44 24 d0          	mov    -0x30(%rsp),%eax
  40148d:	69 c0 e3 02 00 00    	imul   $0x2e3,%eax,%eax
  401493:	89 44 24 d0          	mov    %eax,-0x30(%rsp)
  401497:	8b 44 24 e8          	mov    -0x18(%rsp),%eax
  40149b:	69 c0 3f 70 00 00    	imul   $0x703f,%eax,%eax
  4014a1:	89 44 24 e8          	mov    %eax,-0x18(%rsp)
  4014a5:	8b 44 24 d8          	mov    -0x28(%rsp),%eax
  4014a9:	69 c0 62 c9 00 00    	imul   $0xc962,%eax,%eax
  4014af:	89 44 24 d8          	mov    %eax,-0x28(%rsp)
  4014b3:	8b 44 24 ec          	mov    -0x14(%rsp),%eax
  4014b7:	69 c0 89 a5 00 00    	imul   $0xa589,%eax,%eax
  4014bd:	89 44 24 ec          	mov    %eax,-0x14(%rsp)
  4014c1:	8b 44 24 d4          	mov    -0x2c(%rsp),%eax
  4014c5:	69 c0 1e 97 00 00    	imul   $0x971e,%eax,%eax
  4014cb:	89 44 24 d4          	mov    %eax,-0x2c(%rsp)
  4014cf:	8b 44 24 f0          	mov    -0x10(%rsp),%eax
  4014d3:	69 c0 b0 58 00 00    	imul   $0x58b0,%eax,%eax
  4014d9:	89 44 24 f0          	mov    %eax,-0x10(%rsp)
  4014dd:	8b 44 24 e8          	mov    -0x18(%rsp),%eax
  4014e1:	69 c0 11 1c 00 00    	imul   $0x1c11,%eax,%eax
  4014e7:	89 44 24 e8          	mov    %eax,-0x18(%rsp)
  4014eb:	8b 44 24 e4          	mov    -0x1c(%rsp),%eax
  4014ef:	69 c0 d9 4c 00 00    	imul   $0x4cd9,%eax,%eax
  4014f5:	89 44 24 e4          	mov    %eax,-0x1c(%rsp)
  4014f9:	8b 44 24 e8          	mov    -0x18(%rsp),%eax
  4014fd:	69 c0 e5 29 00 00    	imul   $0x29e5,%eax,%eax
  401503:	89 44 24 e8          	mov    %eax,-0x18(%rsp)
  401507:	8b 44 24 dc          	mov    -0x24(%rsp),%eax
  40150b:	69 c0 35 6f 00 00    	imul   $0x6f35,%eax,%eax
  401511:	89 44 24 dc          	mov    %eax,-0x24(%rsp)
  401515:	8b 44 24 e4          	mov    -0x1c(%rsp),%eax
  401519:	69 c0 53 59 00 00    	imul   $0x5953,%eax,%eax
  40151f:	89 44 24 e4          	mov    %eax,-0x1c(%rsp)
  401523:	8b 44 24 e0          	mov    -0x20(%rsp),%eax
  401527:	69 c0 9c 25 00 00    	imul   $0x259c,%eax,%eax
  40152d:	89 44 24 e0          	mov    %eax,-0x20(%rsp)
  401531:	8b 44 24 d0          	mov    -0x30(%rsp),%eax
  401535:	69 c0 51 d9 00 00    	imul   $0xd951,%eax,%eax
  40153b:	89 44 24 d0          	mov    %eax,-0x30(%rsp)
  40153f:	8b 44 24 dc          	mov    -0x24(%rsp),%eax
  401543:	69 c0 1a 1d 00 00    	imul   $0x1d1a,%eax,%eax
  401549:	89 44 24 dc          	mov    %eax,-0x24(%rsp)
  40154d:	8b 44 24 e8          	mov    -0x18(%rsp),%eax
  401551:	69 c0 a2 39 00 00    	imul   $0x39a2,%eax,%eax
  401557:	89 44 24 e8          	mov    %eax,-0x18(%rsp)
  40155b:	8b 44 24 e4          	mov    -0x1c(%rsp),%eax
  40155f:	69 c0 fc 08 00 00    	imul   $0x8fc,%eax,%eax
  401565:	89 44 24 e4          	mov    %eax,-0x1c(%rsp)
  401569:	8b 44 24 dc          	mov    -0x24(%rsp),%eax
  40156d:	69 c0 f2 51 00 00    	imul   $0x51f2,%eax,%eax
  401573:	89 44 24 dc          	mov    %eax,-0x24(%rsp)
  401577:	8b 44 24 e8          	mov    -0x18(%rsp),%eax
  40157b:	69 c0 29 e4 00 00    	imul   $0xe429,%eax,%eax
  401581:	89 44 24 e8          	mov    %eax,-0x18(%rsp)
  401585:	8b 44 24 d4          	mov    -0x2c(%rsp),%eax
  401589:	69 c0 ed 70 00 00    	imul   $0x70ed,%eax,%eax
  40158f:	89 44 24 d4          	mov    %eax,-0x2c(%rsp)
  401593:	8b 44 24 d4          	mov    -0x2c(%rsp),%eax
  401597:	69 c0 1e c3 00 00    	imul   $0xc31e,%eax,%eax
  40159d:	89 44 24 d4          	mov    %eax,-0x2c(%rsp)
  4015a1:	8b 44 24 e0          	mov    -0x20(%rsp),%eax
  4015a5:	69 c0 50 0d 00 00    	imul   $0xd50,%eax,%eax
  4015ab:	89 44 24 e0          	mov    %eax,-0x20(%rsp)
  4015af:	8b 44 24 e0          	mov    -0x20(%rsp),%eax
  4015b3:	6b c0 7e             	imul   $0x7e,%eax,%eax
  4015b6:	89 44 24 e0          	mov    %eax,-0x20(%rsp)
  4015ba:	8b 44 24 d4          	mov    -0x2c(%rsp),%eax
  4015be:	69 c0 0c e8 00 00    	imul   $0xe80c,%eax,%eax
  4015c4:	89 44 24 d4          	mov    %eax,-0x2c(%rsp)
  4015c8:	8b 44 24 e4          	mov    -0x1c(%rsp),%eax
  4015cc:	69 c0 7d 2a 00 00    	imul   $0x2a7d,%eax,%eax
  4015d2:	89 44 24 e4          	mov    %eax,-0x1c(%rsp)
  4015d6:	8b 44 24 f0          	mov    -0x10(%rsp),%eax
  4015da:	69 c0 ce bb 00 00    	imul   $0xbbce,%eax,%eax
  4015e0:	89 44 24 f0          	mov    %eax,-0x10(%rsp)
  4015e4:	8b 44 24 dc          	mov    -0x24(%rsp),%eax
  4015e8:	69 c0 9b e7 00 00    	imul   $0xe79b,%eax,%eax
  4015ee:	89 44 24 dc          	mov    %eax,-0x24(%rsp)
  4015f2:	8b 44 24 ec          	mov    -0x14(%rsp),%eax
  4015f6:	69 c0 69 aa 00 00    	imul   $0xaa69,%eax,%eax
  4015fc:	89 44 24 ec          	mov    %eax,-0x14(%rsp)
  401600:	8b 44 24 ec          	mov    -0x14(%rsp),%eax
  401604:	69 c0 ec e2 00 00    	imul   $0xe2ec,%eax,%eax
  40160a:	89 44 24 ec          	mov    %eax,-0x14(%rsp)
  40160e:	8b 44 24 e0          	mov    -0x20(%rsp),%eax
  401612:	69 c0 31 9b 00 00    	imul   $0x9b31,%eax,%eax
  401618:	89 44 24 e0          	mov    %eax,-0x20(%rsp)
  40161c:	8b 44 24 e4          	mov    -0x1c(%rsp),%eax
  401620:	69 c0 f8 83 00 00    	imul   $0x83f8,%eax,%eax
  401626:	89 44 24 e4          	mov    %eax,-0x1c(%rsp)
  40162a:	8b 44 24 ec          	mov    -0x14(%rsp),%eax
  40162e:	69 c0 34 d7 00 00    	imul   $0xd734,%eax,%eax
  401634:	89 44 24 ec          	mov    %eax,-0x14(%rsp)
  401638:	8b 44 24 f0          	mov    -0x10(%rsp),%eax
  40163c:	69 c0 59 11 00 00    	imul   $0x1159,%eax,%eax
  401642:	89 44 24 f0          	mov    %eax,-0x10(%rsp)
  401646:	8b 44 24 e0          	mov    -0x20(%rsp),%eax
  40164a:	69 c0 30 06 00 00    	imul   $0x630,%eax,%eax
  401650:	89 44 24 e0          	mov    %eax,-0x20(%rsp)
  401654:	8b 44 24 e8          	mov    -0x18(%rsp),%eax
  401658:	69 c0 7b 44 00 00    	imul   $0x447b,%eax,%eax
  40165e:	89 44 24 e8          	mov    %eax,-0x18(%rsp)
  401662:	8b 44 24 dc          	mov    -0x24(%rsp),%eax
  401666:	69 c0 35 7f 00 00    	imul   $0x7f35,%eax,%eax
  40166c:	89 44 24 dc          	mov    %eax,-0x24(%rsp)
  401670:	8b 44 24 d8          	mov    -0x28(%rsp),%eax
  401674:	69 c0 29 7f 00 00    	imul   $0x7f29,%eax,%eax
  40167a:	89 44 24 d8          	mov    %eax,-0x28(%rsp)
  40167e:	8b 44 24 dc          	mov    -0x24(%rsp),%eax
  401682:	69 c0 67 23 00 00    	imul   $0x2367,%eax,%eax
  401688:	89 44 24 dc          	mov    %eax,-0x24(%rsp)
  40168c:	8b 44 24 f4          	mov    -0xc(%rsp),%eax
  401690:	69 c0 e8 b5 00 00    	imul   $0xb5e8,%eax,%eax
  401696:	89 44 24 f4          	mov    %eax,-0xc(%rsp)
  40169a:	8b 44 24 ec          	mov    -0x14(%rsp),%eax
  40169e:	69 c0 ff cc 00 00    	imul   $0xccff,%eax,%eax
  4016a4:	89 44 24 ec          	mov    %eax,-0x14(%rsp)
  4016a8:	8b 44 24 e4          	mov    -0x1c(%rsp),%eax
  4016ac:	69 c0 64 1d 00 00    	imul   $0x1d64,%eax,%eax
  4016b2:	89 44 24 e4          	mov    %eax,-0x1c(%rsp)
  4016b6:	8b 44 24 e4          	mov    -0x1c(%rsp),%eax
  4016ba:	69 c0 17 7a 00 00    	imul   $0x7a17,%eax,%eax
  4016c0:	89 44 24 e4          	mov    %eax,-0x1c(%rsp)
  4016c4:	8b 44 24 d0          	mov    -0x30(%rsp),%eax
  4016c8:	69 c0 ee 9d 00 00    	imul   $0x9dee,%eax,%eax
  4016ce:	89 44 24 d0          	mov    %eax,-0x30(%rsp)
  4016d2:	8b 44 24 f0          	mov    -0x10(%rsp),%eax
  4016d6:	69 c0 37 12 00 00    	imul   $0x1237,%eax,%eax
  4016dc:	89 44 24 f0          	mov    %eax,-0x10(%rsp)
  4016e0:	8b 44 24 e8          	mov    -0x18(%rsp),%eax
  4016e4:	69 c0 3b a8 00 00    	imul   $0xa83b,%eax,%eax
  4016ea:	89 44 24 e8          	mov    %eax,-0x18(%rsp)
  4016ee:	8b 44 24 d8          	mov    -0x28(%rsp),%eax
  4016f2:	69 c0 e0 80 00 00    	imul   $0x80e0,%eax,%eax
  4016f8:	89 44 24 d8          	mov    %eax,-0x28(%rsp)
  4016fc:	8b 44 24 e0          	mov    -0x20(%rsp),%eax
  401700:	69 c0 3c 82 00 00    	imul   $0x823c,%eax,%eax
  401706:	89 44 24 e0          	mov    %eax,-0x20(%rsp)
  40170a:	8b 44 24 e4          	mov    -0x1c(%rsp),%eax
  40170e:	69 c0 29 b9 00 00    	imul   $0xb929,%eax,%eax
  401714:	89 44 24 e4          	mov    %eax,-0x1c(%rsp)
  401718:	8b 44 24 d4          	mov    -0x2c(%rsp),%eax
  40171c:	69 c0 3b 81 00 00    	imul   $0x813b,%eax,%eax
  401722:	89 44 24 d4          	mov    %eax,-0x2c(%rsp)
  401726:	8b 44 24 d0          	mov    -0x30(%rsp),%eax
  40172a:	69 c0 17 89 00 00    	imul   $0x8917,%eax,%eax
  401730:	89 44 24 d0          	mov    %eax,-0x30(%rsp)
  401734:	8b 44 24 f4          	mov    -0xc(%rsp),%eax
  401738:	69 c0 77 36 00 00    	imul   $0x3677,%eax,%eax
  40173e:	89 44 24 f4          	mov    %eax,-0xc(%rsp)
  401742:	8b 44 24 d4          	mov    -0x2c(%rsp),%eax
  401746:	69 c0 4f cd 00 00    	imul   $0xcd4f,%eax,%eax
  40174c:	89 44 24 d4          	mov    %eax,-0x2c(%rsp)
  401750:	8b 44 24 e0          	mov    -0x20(%rsp),%eax
  401754:	69 c0 d3 94 00 00    	imul   $0x94d3,%eax,%eax
  40175a:	89 44 24 e0          	mov    %eax,-0x20(%rsp)
  40175e:	8b 44 24 f4          	mov    -0xc(%rsp),%eax
  401762:	69 c0 48 35 00 00    	imul   $0x3548,%eax,%eax
  401768:	89 44 24 f4          	mov    %eax,-0xc(%rsp)
  40176c:	8b 44 24 dc          	mov    -0x24(%rsp),%eax
  401770:	69 c0 29 fc 00 00    	imul   $0xfc29,%eax,%eax
  401776:	89 44 24 dc          	mov    %eax,-0x24(%rsp)
  40177a:	ba 00 00 00 00       	mov    $0x0,%edx
  40177f:	b8 00 00 00 00       	mov    $0x0,%eax
  401784:	eb 0b                	jmp    401791 <scramble+0x51d>
  401786:	89 d1                	mov    %edx,%ecx
  401788:	8b 4c 8c d0          	mov    -0x30(%rsp,%rcx,4),%ecx
  40178c:	01 c8                	add    %ecx,%eax
  40178e:	83 c2 01             	add    $0x1,%edx
  401791:	83 fa 09             	cmp    $0x9,%edx
  401794:	76 f0                	jbe    401786 <scramble+0x512>
  401796:	f3 c3                	repz retq 

0000000000401798 <getbuf>:
  401798:	48 83 ec 18          	sub    $0x18,%rsp
  40179c:	48 89 e7             	mov    %rsp,%rdi
  40179f:	e8 6d 03 00 00       	callq  401b11 <Gets>
  4017a4:	b8 01 00 00 00       	mov    $0x1,%eax
  4017a9:	48 83 c4 18          	add    $0x18,%rsp
  4017ad:	c3                   	retq   

00000000004017ae <touch1>:
  4017ae:	48 83 ec 08          	sub    $0x8,%rsp
  4017b2:	c7 05 40 3d 20 00 01 	movl   $0x1,0x203d40(%rip)        # 6054fc <vlevel>
  4017b9:	00 00 00 
  4017bc:	48 8d 3d eb 18 00 00 	lea    0x18eb(%rip),%rdi        # 4030ae <_IO_stdin_used+0x2ce>
  4017c3:	e8 68 f4 ff ff       	callq  400c30 <puts@plt>
  4017c8:	bf 01 00 00 00       	mov    $0x1,%edi
  4017cd:	e8 56 05 00 00       	callq  401d28 <validate>
  4017d2:	bf 00 00 00 00       	mov    $0x0,%edi
  4017d7:	e8 d4 f5 ff ff       	callq  400db0 <exit@plt>

00000000004017dc <touch2>:
  4017dc:	48 83 ec 08          	sub    $0x8,%rsp
  4017e0:	89 fe                	mov    %edi,%esi
  4017e2:	c7 05 10 3d 20 00 02 	movl   $0x2,0x203d10(%rip)        # 6054fc <vlevel>
  4017e9:	00 00 00 
  4017ec:	39 3d 12 3d 20 00    	cmp    %edi,0x203d12(%rip)        # 605504 <cookie>
  4017f2:	74 25                	je     401819 <touch2+0x3d>
  4017f4:	48 8d 3d fd 18 00 00 	lea    0x18fd(%rip),%rdi        # 4030f8 <_IO_stdin_used+0x318>
  4017fb:	b8 00 00 00 00       	mov    $0x0,%eax
  401800:	e8 5b f4 ff ff       	callq  400c60 <printf@plt>
  401805:	bf 02 00 00 00       	mov    $0x2,%edi
  40180a:	e8 d7 05 00 00       	callq  401de6 <fail>
  40180f:	bf 00 00 00 00       	mov    $0x0,%edi
  401814:	e8 97 f5 ff ff       	callq  400db0 <exit@plt>
  401819:	48 8d 3d b0 18 00 00 	lea    0x18b0(%rip),%rdi        # 4030d0 <_IO_stdin_used+0x2f0>
  401820:	b8 00 00 00 00       	mov    $0x0,%eax
  401825:	e8 36 f4 ff ff       	callq  400c60 <printf@plt>
  40182a:	bf 02 00 00 00       	mov    $0x2,%edi
  40182f:	e8 f4 04 00 00       	callq  401d28 <validate>
  401834:	eb d9                	jmp    40180f <touch2+0x33>

0000000000401836 <hexmatch>:
  401836:	41 54                	push   %r12
  401838:	55                   	push   %rbp
  401839:	53                   	push   %rbx
  40183a:	48 83 ec 70          	sub    $0x70,%rsp
  40183e:	89 fd                	mov    %edi,%ebp
  401840:	48 89 f3             	mov    %rsi,%rbx
  401843:	e8 c8 f4 ff ff       	callq  400d10 <random@plt>
  401848:	48 89 c1             	mov    %rax,%rcx
  40184b:	48 ba 0b d7 a3 70 3d 	movabs $0xa3d70a3d70a3d70b,%rdx
  401852:	0a d7 a3 
  401855:	48 f7 ea             	imul   %rdx
  401858:	48 01 ca             	add    %rcx,%rdx
  40185b:	48 c1 fa 06          	sar    $0x6,%rdx
  40185f:	48 89 c8             	mov    %rcx,%rax
  401862:	48 c1 f8 3f          	sar    $0x3f,%rax
  401866:	48 29 c2             	sub    %rax,%rdx
  401869:	48 8d 04 92          	lea    (%rdx,%rdx,4),%rax
  40186d:	48 8d 14 80          	lea    (%rax,%rax,4),%rdx
  401871:	48 8d 04 95 00 00 00 	lea    0x0(,%rdx,4),%rax
  401878:	00 
  401879:	48 29 c1             	sub    %rax,%rcx
  40187c:	4c 8d 24 0c          	lea    (%rsp,%rcx,1),%r12
  401880:	89 ea                	mov    %ebp,%edx
  401882:	48 8d 35 42 18 00 00 	lea    0x1842(%rip),%rsi        # 4030cb <_IO_stdin_used+0x2eb>
  401889:	4c 89 e7             	mov    %r12,%rdi
  40188c:	b8 00 00 00 00       	mov    $0x0,%eax
  401891:	e8 0a f5 ff ff       	callq  400da0 <sprintf@plt>
  401896:	ba 09 00 00 00       	mov    $0x9,%edx
  40189b:	4c 89 e6             	mov    %r12,%rsi
  40189e:	48 89 df             	mov    %rbx,%rdi
  4018a1:	e8 6a f3 ff ff       	callq  400c10 <strncmp@plt>
  4018a6:	85 c0                	test   %eax,%eax
  4018a8:	0f 94 c0             	sete   %al
  4018ab:	0f b6 c0             	movzbl %al,%eax
  4018ae:	48 83 c4 70          	add    $0x70,%rsp
  4018b2:	5b                   	pop    %rbx
  4018b3:	5d                   	pop    %rbp
  4018b4:	41 5c                	pop    %r12
  4018b6:	c3                   	retq   

00000000004018b7 <touch3>:
  4018b7:	53                   	push   %rbx
  4018b8:	48 89 fb             	mov    %rdi,%rbx
  4018bb:	c7 05 37 3c 20 00 03 	movl   $0x3,0x203c37(%rip)        # 6054fc <vlevel>
  4018c2:	00 00 00 
  4018c5:	48 89 fe             	mov    %rdi,%rsi
  4018c8:	8b 3d 36 3c 20 00    	mov    0x203c36(%rip),%edi        # 605504 <cookie>
  4018ce:	e8 63 ff ff ff       	callq  401836 <hexmatch>
  4018d3:	85 c0                	test   %eax,%eax
  4018d5:	74 28                	je     4018ff <touch3+0x48>
  4018d7:	48 89 de             	mov    %rbx,%rsi
  4018da:	48 8d 3d 3f 18 00 00 	lea    0x183f(%rip),%rdi        # 403120 <_IO_stdin_used+0x340>
  4018e1:	b8 00 00 00 00       	mov    $0x0,%eax
  4018e6:	e8 75 f3 ff ff       	callq  400c60 <printf@plt>
  4018eb:	bf 03 00 00 00       	mov    $0x3,%edi
  4018f0:	e8 33 04 00 00       	callq  401d28 <validate>
  4018f5:	bf 00 00 00 00       	mov    $0x0,%edi
  4018fa:	e8 b1 f4 ff ff       	callq  400db0 <exit@plt>
  4018ff:	48 89 de             	mov    %rbx,%rsi
  401902:	48 8d 3d 3f 18 00 00 	lea    0x183f(%rip),%rdi        # 403148 <_IO_stdin_used+0x368>
  401909:	b8 00 00 00 00       	mov    $0x0,%eax
  40190e:	e8 4d f3 ff ff       	callq  400c60 <printf@plt>
  401913:	bf 03 00 00 00       	mov    $0x3,%edi
  401918:	e8 c9 04 00 00       	callq  401de6 <fail>
  40191d:	eb d6                	jmp    4018f5 <touch3+0x3e>

000000000040191f <test>:
  40191f:	48 83 ec 08          	sub    $0x8,%rsp
  401923:	b8 00 00 00 00       	mov    $0x0,%eax
  401928:	e8 6b fe ff ff       	callq  401798 <getbuf>
  40192d:	89 c6                	mov    %eax,%esi
  40192f:	48 8d 3d 3a 18 00 00 	lea    0x183a(%rip),%rdi        # 403170 <_IO_stdin_used+0x390>
  401936:	b8 00 00 00 00       	mov    $0x0,%eax
  40193b:	e8 20 f3 ff ff       	callq  400c60 <printf@plt>
  401940:	48 83 c4 08          	add    $0x8,%rsp
  401944:	c3                   	retq   

0000000000401945 <start_farm>:
  401945:	b8 01 00 00 00       	mov    $0x1,%eax
  40194a:	c3                   	retq   

000000000040194b <setval_301>:
  40194b:	c7 07 6f e1 58 90    	movl   $0x9058e16f,(%rdi)
  401951:	c3                   	retq   

0000000000401952 <addval_130>:
  401952:	8d 87 48 89 c7 c3    	lea    -0x3c3876b8(%rdi),%eax
  401958:	c3                   	retq   

0000000000401959 <addval_276>:
  401959:	8d 87 cf 58 92 90    	lea    -0x6f6da731(%rdi),%eax
  40195f:	c3                   	retq   

0000000000401960 <addval_336>:
  401960:	8d 87 58 c3 61 a6    	lea    -0x599e3ca8(%rdi),%eax
  401966:	c3                   	retq   

0000000000401967 <addval_215>:
  401967:	8d 87 58 94 90 90    	lea    -0x6f6f6ba8(%rdi),%eax
  40196d:	c3                   	retq   

000000000040196e <setval_135>:
  40196e:	c7 07 48 89 c7 c3    	movl   $0xc3c78948,(%rdi)
  401974:	c3                   	retq   

0000000000401975 <getval_199>:
  401975:	b8 48 89 c7 c1       	mov    $0xc1c78948,%eax
  40197a:	c3                   	retq   

000000000040197b <addval_122>:
  40197b:	8d 87 48 8b c7 c3    	lea    -0x3c3874b8(%rdi),%eax
  401981:	c3                   	retq   

0000000000401982 <mid_farm>:
  401982:	b8 01 00 00 00       	mov    $0x1,%eax
  401987:	c3                   	retq   

0000000000401988 <add_xy>:
  401988:	48 8d 04 37          	lea    (%rdi,%rsi,1),%rax
  40198c:	c3                   	retq   

000000000040198d <setval_216>:
  40198d:	c7 07 89 d6 90 90    	movl   $0x9090d689,(%rdi)
  401993:	c3                   	retq   

0000000000401994 <setval_476>:
  401994:	c7 07 c8 89 e0 c3    	movl   $0xc3e089c8,(%rdi)
  40199a:	c3                   	retq   

000000000040199b <setval_417>:
  40199b:	c7 07 88 c1 38 db    	movl   $0xdb38c188,(%rdi)
  4019a1:	c3                   	retq   

00000000004019a2 <addval_136>:
  4019a2:	8d 87 89 d6 90 c7    	lea    -0x386f2977(%rdi),%eax
  4019a8:	c3                   	retq   

00000000004019a9 <addval_105>:
  4019a9:	8d 87 89 c1 60 c9    	lea    -0x369f3e77(%rdi),%eax
  4019af:	c3                   	retq   

00000000004019b0 <addval_200>:
  4019b0:	8d 87 09 3b 89 ca    	lea    -0x3576c4f7(%rdi),%eax
  4019b6:	c3                   	retq   

00000000004019b7 <addval_465>:
  4019b7:	8d 87 c9 c1 38 d2    	lea    -0x2dc73e37(%rdi),%eax
  4019bd:	c3                   	retq   

00000000004019be <addval_212>:
  4019be:	8d 87 50 89 c1 90    	lea    -0x6f3e76b0(%rdi),%eax
  4019c4:	c3                   	retq   

00000000004019c5 <getval_355>:
  4019c5:	b8 4a 89 e0 90       	mov    $0x90e0894a,%eax
  4019ca:	c3                   	retq   

00000000004019cb <setval_368>:
  4019cb:	c7 07 48 89 e0 91    	movl   $0x91e08948,(%rdi)
  4019d1:	c3                   	retq   

00000000004019d2 <addval_228>:
  4019d2:	8d 87 89 d6 00 c9    	lea    -0x36ff2977(%rdi),%eax
  4019d8:	c3                   	retq   

00000000004019d9 <setval_151>:
  4019d9:	c7 07 48 89 e0 c3    	movl   $0xc3e08948,(%rdi)
  4019df:	c3                   	retq   

00000000004019e0 <setval_169>:
  4019e0:	c7 07 89 ca 84 db    	movl   $0xdb84ca89,(%rdi)
  4019e6:	c3                   	retq   

00000000004019e7 <addval_443>:
  4019e7:	8d 87 89 d6 28 db    	lea    -0x24d72977(%rdi),%eax
  4019ed:	c3                   	retq   

00000000004019ee <addval_398>:
  4019ee:	8d 87 89 d6 a4 db    	lea    -0x245b2977(%rdi),%eax
  4019f4:	c3                   	retq   

00000000004019f5 <setval_119>:
  4019f5:	c7 07 33 3a 89 c1    	movl   $0xc1893a33,(%rdi)
  4019fb:	c3                   	retq   

00000000004019fc <getval_394>:
  4019fc:	b8 8b 89 c1 94       	mov    $0x94c1898b,%eax
  401a01:	c3                   	retq   

0000000000401a02 <addval_450>:
  401a02:	8d 87 48 81 e0 90    	lea    -0x6f1f7eb8(%rdi),%eax
  401a08:	c3                   	retq   

0000000000401a09 <addval_159>:
  401a09:	8d 87 89 ca 60 d2    	lea    -0x2d9f3577(%rdi),%eax
  401a0f:	c3                   	retq   

0000000000401a10 <setval_436>:
  401a10:	c7 07 48 89 e0 90    	movl   $0x90e08948,(%rdi)
  401a16:	c3                   	retq   

0000000000401a17 <addval_315>:
  401a17:	8d 87 68 89 e0 c3    	lea    -0x3c1f7698(%rdi),%eax
  401a1d:	c3                   	retq   

0000000000401a1e <setval_180>:
  401a1e:	c7 07 89 c1 90 c7    	movl   $0xc790c189,(%rdi)
  401a24:	c3                   	retq   

0000000000401a25 <addval_295>:
  401a25:	8d 87 c9 ca 90 90    	lea    -0x6f6f3537(%rdi),%eax
  401a2b:	c3                   	retq   

0000000000401a2c <getval_272>:
  401a2c:	b8 89 d6 48 c0       	mov    $0xc048d689,%eax
  401a31:	c3                   	retq   

0000000000401a32 <addval_284>:
  401a32:	8d 87 89 c1 91 90    	lea    -0x6f6e3e77(%rdi),%eax
  401a38:	c3                   	retq   

0000000000401a39 <setval_290>:
  401a39:	c7 07 af dc 8b ca    	movl   $0xca8bdcaf,(%rdi)
  401a3f:	c3                   	retq   

0000000000401a40 <addval_325>:
  401a40:	8d 87 40 89 e0 c3    	lea    -0x3c1f76c0(%rdi),%eax
  401a46:	c3                   	retq   

0000000000401a47 <setval_236>:
  401a47:	c7 07 89 d6 38 c0    	movl   $0xc038d689,(%rdi)
  401a4d:	c3                   	retq   

0000000000401a4e <getval_116>:
  401a4e:	b8 89 d6 18 d2       	mov    $0xd218d689,%eax
  401a53:	c3                   	retq   

0000000000401a54 <addval_474>:
  401a54:	8d 87 8b ca 38 db    	lea    -0x24c73575(%rdi),%eax
  401a5a:	c3                   	retq   

0000000000401a5b <getval_249>:
  401a5b:	b8 81 ca 90 c3       	mov    $0xc390ca81,%eax
  401a60:	c3                   	retq   

0000000000401a61 <addval_285>:
  401a61:	8d 87 89 ca 78 d2    	lea    -0x2d873577(%rdi),%eax
  401a67:	c3                   	retq   

0000000000401a68 <end_farm>:
  401a68:	b8 01 00 00 00       	mov    $0x1,%eax
  401a6d:	c3                   	retq   

0000000000401a6e <save_char>:
  401a6e:	8b 05 b0 46 20 00    	mov    0x2046b0(%rip),%eax        # 606124 <gets_cnt>
  401a74:	3d ff 03 00 00       	cmp    $0x3ff,%eax
  401a79:	7f 4a                	jg     401ac5 <save_char+0x57>
  401a7b:	8d 14 40             	lea    (%rax,%rax,2),%edx
  401a7e:	89 f9                	mov    %edi,%ecx
  401a80:	c0 e9 04             	shr    $0x4,%cl
  401a83:	4c 8d 05 06 1a 00 00 	lea    0x1a06(%rip),%r8        # 403490 <trans_char>
  401a8a:	83 e1 0f             	and    $0xf,%ecx
  401a8d:	45 0f b6 0c 08       	movzbl (%r8,%rcx,1),%r9d
  401a92:	48 8d 0d 87 3a 20 00 	lea    0x203a87(%rip),%rcx        # 605520 <gets_buf>
  401a99:	48 63 f2             	movslq %edx,%rsi
  401a9c:	44 88 0c 31          	mov    %r9b,(%rcx,%rsi,1)
  401aa0:	8d 72 01             	lea    0x1(%rdx),%esi
  401aa3:	83 e7 0f             	and    $0xf,%edi
  401aa6:	41 0f b6 3c 38       	movzbl (%r8,%rdi,1),%edi
  401aab:	48 63 f6             	movslq %esi,%rsi
  401aae:	40 88 3c 31          	mov    %dil,(%rcx,%rsi,1)
  401ab2:	83 c2 02             	add    $0x2,%edx
  401ab5:	48 63 d2             	movslq %edx,%rdx
  401ab8:	c6 04 11 20          	movb   $0x20,(%rcx,%rdx,1)
  401abc:	83 c0 01             	add    $0x1,%eax
  401abf:	89 05 5f 46 20 00    	mov    %eax,0x20465f(%rip)        # 606124 <gets_cnt>
  401ac5:	f3 c3                	repz retq 

0000000000401ac7 <save_term>:
  401ac7:	8b 05 57 46 20 00    	mov    0x204657(%rip),%eax        # 606124 <gets_cnt>
  401acd:	8d 04 40             	lea    (%rax,%rax,2),%eax
  401ad0:	48 98                	cltq   
  401ad2:	48 8d 15 47 3a 20 00 	lea    0x203a47(%rip),%rdx        # 605520 <gets_buf>
  401ad9:	c6 04 02 00          	movb   $0x0,(%rdx,%rax,1)
  401add:	c3                   	retq   

0000000000401ade <check_fail>:
  401ade:	48 83 ec 08          	sub    $0x8,%rsp
  401ae2:	0f be 35 3f 46 20 00 	movsbl 0x20463f(%rip),%esi        # 606128 <target_prefix>
  401ae9:	48 8d 0d 30 3a 20 00 	lea    0x203a30(%rip),%rcx        # 605520 <gets_buf>
  401af0:	8b 15 02 3a 20 00    	mov    0x203a02(%rip),%edx        # 6054f8 <check_level>
  401af6:	48 8d 3d 96 16 00 00 	lea    0x1696(%rip),%rdi        # 403193 <_IO_stdin_used+0x3b3>
  401afd:	b8 00 00 00 00       	mov    $0x0,%eax
  401b02:	e8 59 f1 ff ff       	callq  400c60 <printf@plt>
  401b07:	bf 01 00 00 00       	mov    $0x1,%edi
  401b0c:	e8 9f f2 ff ff       	callq  400db0 <exit@plt>

0000000000401b11 <Gets>:
  401b11:	41 54                	push   %r12
  401b13:	55                   	push   %rbp
  401b14:	53                   	push   %rbx
  401b15:	49 89 fc             	mov    %rdi,%r12
  401b18:	c7 05 02 46 20 00 00 	movl   $0x0,0x204602(%rip)        # 606124 <gets_cnt>
  401b1f:	00 00 00 
  401b22:	48 89 fb             	mov    %rdi,%rbx
  401b25:	eb 11                	jmp    401b38 <Gets+0x27>
  401b27:	48 8d 6b 01          	lea    0x1(%rbx),%rbp
  401b2b:	88 03                	mov    %al,(%rbx)
  401b2d:	0f b6 f8             	movzbl %al,%edi
  401b30:	e8 39 ff ff ff       	callq  401a6e <save_char>
  401b35:	48 89 eb             	mov    %rbp,%rbx
  401b38:	48 8b 3d b1 39 20 00 	mov    0x2039b1(%rip),%rdi        # 6054f0 <infile>
  401b3f:	e8 dc f1 ff ff       	callq  400d20 <_IO_getc@plt>
  401b44:	83 f8 ff             	cmp    $0xffffffff,%eax
  401b47:	74 05                	je     401b4e <Gets+0x3d>
  401b49:	83 f8 0a             	cmp    $0xa,%eax
  401b4c:	75 d9                	jne    401b27 <Gets+0x16>
  401b4e:	c6 03 00             	movb   $0x0,(%rbx)
  401b51:	b8 00 00 00 00       	mov    $0x0,%eax
  401b56:	e8 6c ff ff ff       	callq  401ac7 <save_term>
  401b5b:	4c 89 e0             	mov    %r12,%rax
  401b5e:	5b                   	pop    %rbx
  401b5f:	5d                   	pop    %rbp
  401b60:	41 5c                	pop    %r12
  401b62:	c3                   	retq   

0000000000401b63 <notify_server>:
  401b63:	83 3d 9e 39 20 00 00 	cmpl   $0x0,0x20399e(%rip)        # 605508 <is_checker>
  401b6a:	0f 85 de 00 00 00    	jne    401c4e <notify_server+0xeb>
  401b70:	55                   	push   %rbp
  401b71:	53                   	push   %rbx
  401b72:	48 81 ec 08 40 00 00 	sub    $0x4008,%rsp
  401b79:	89 fb                	mov    %edi,%ebx
  401b7b:	8b 05 a3 45 20 00    	mov    0x2045a3(%rip),%eax        # 606124 <gets_cnt>
  401b81:	83 c0 64             	add    $0x64,%eax
  401b84:	3d 00 20 00 00       	cmp    $0x2000,%eax
  401b89:	0f 8f c1 00 00 00    	jg     401c50 <notify_server+0xed>
  401b8f:	44 0f be 0d 91 45 20 	movsbl 0x204591(%rip),%r9d        # 606128 <target_prefix>
  401b96:	00 
  401b97:	83 3d ea 38 20 00 00 	cmpl   $0x0,0x2038ea(%rip)        # 605488 <notify>
  401b9e:	0f 84 c7 00 00 00    	je     401c6b <notify_server+0x108>
  401ba4:	44 8b 05 55 39 20 00 	mov    0x203955(%rip),%r8d        # 605500 <authkey>
  401bab:	85 db                	test   %ebx,%ebx
  401bad:	0f 84 c3 00 00 00    	je     401c76 <notify_server+0x113>
  401bb3:	48 8d 2d ef 15 00 00 	lea    0x15ef(%rip),%rbp        # 4031a9 <_IO_stdin_used+0x3c9>
  401bba:	48 8d bc 24 00 20 00 	lea    0x2000(%rsp),%rdi
  401bc1:	00 
  401bc2:	48 8d 05 57 39 20 00 	lea    0x203957(%rip),%rax        # 605520 <gets_buf>
  401bc9:	50                   	push   %rax
  401bca:	56                   	push   %rsi
  401bcb:	48 89 e9             	mov    %rbp,%rcx
  401bce:	8b 15 5c 35 20 00    	mov    0x20355c(%rip),%edx        # 605130 <target_id>
  401bd4:	48 8d 35 d8 15 00 00 	lea    0x15d8(%rip),%rsi        # 4031b3 <_IO_stdin_used+0x3d3>
  401bdb:	b8 00 00 00 00       	mov    $0x0,%eax
  401be0:	e8 bb f1 ff ff       	callq  400da0 <sprintf@plt>
  401be5:	48 83 c4 10          	add    $0x10,%rsp
  401be9:	83 3d 98 38 20 00 00 	cmpl   $0x0,0x203898(%rip)        # 605488 <notify>
  401bf0:	0f 84 b8 00 00 00    	je     401cae <notify_server+0x14b>
  401bf6:	85 db                	test   %ebx,%ebx
  401bf8:	0f 84 a2 00 00 00    	je     401ca0 <notify_server+0x13d>
  401bfe:	48 8d 8c 24 00 20 00 	lea    0x2000(%rsp),%rcx
  401c05:	00 
  401c06:	49 89 e1             	mov    %rsp,%r9
  401c09:	41 b8 00 00 00 00    	mov    $0x0,%r8d
  401c0f:	48 8b 15 32 35 20 00 	mov    0x203532(%rip),%rdx        # 605148 <lab>
  401c16:	48 8b 35 33 35 20 00 	mov    0x203533(%rip),%rsi        # 605150 <course>
  401c1d:	48 8b 3d 1c 35 20 00 	mov    0x20351c(%rip),%rdi        # 605140 <user_id>
  401c24:	e8 6e 10 00 00       	callq  402c97 <driver_post>
  401c29:	85 c0                	test   %eax,%eax
  401c2b:	78 55                	js     401c82 <notify_server+0x11f>
  401c2d:	48 8d 3d c4 16 00 00 	lea    0x16c4(%rip),%rdi        # 4032f8 <_IO_stdin_used+0x518>
  401c34:	e8 f7 ef ff ff       	callq  400c30 <puts@plt>
  401c39:	48 8d 3d 9b 15 00 00 	lea    0x159b(%rip),%rdi        # 4031db <_IO_stdin_used+0x3fb>
  401c40:	e8 eb ef ff ff       	callq  400c30 <puts@plt>
  401c45:	48 81 c4 08 40 00 00 	add    $0x4008,%rsp
  401c4c:	5b                   	pop    %rbx
  401c4d:	5d                   	pop    %rbp
  401c4e:	f3 c3                	repz retq 
  401c50:	48 8d 3d 71 16 00 00 	lea    0x1671(%rip),%rdi        # 4032c8 <_IO_stdin_used+0x4e8>
  401c57:	b8 00 00 00 00       	mov    $0x0,%eax
  401c5c:	e8 ff ef ff ff       	callq  400c60 <printf@plt>
  401c61:	bf 01 00 00 00       	mov    $0x1,%edi
  401c66:	e8 45 f1 ff ff       	callq  400db0 <exit@plt>
  401c6b:	41 b8 ff ff ff ff    	mov    $0xffffffff,%r8d
  401c71:	e9 35 ff ff ff       	jmpq   401bab <notify_server+0x48>
  401c76:	48 8d 2d 31 15 00 00 	lea    0x1531(%rip),%rbp        # 4031ae <_IO_stdin_used+0x3ce>
  401c7d:	e9 38 ff ff ff       	jmpq   401bba <notify_server+0x57>
  401c82:	48 89 e6             	mov    %rsp,%rsi
  401c85:	48 8d 3d 43 15 00 00 	lea    0x1543(%rip),%rdi        # 4031cf <_IO_stdin_used+0x3ef>
  401c8c:	b8 00 00 00 00       	mov    $0x0,%eax
  401c91:	e8 ca ef ff ff       	callq  400c60 <printf@plt>
  401c96:	bf 01 00 00 00       	mov    $0x1,%edi
  401c9b:	e8 10 f1 ff ff       	callq  400db0 <exit@plt>
  401ca0:	48 8d 3d 3e 15 00 00 	lea    0x153e(%rip),%rdi        # 4031e5 <_IO_stdin_used+0x405>
  401ca7:	e8 84 ef ff ff       	callq  400c30 <puts@plt>
  401cac:	eb 97                	jmp    401c45 <notify_server+0xe2>
  401cae:	48 89 ee             	mov    %rbp,%rsi
  401cb1:	48 8d 3d 78 16 00 00 	lea    0x1678(%rip),%rdi        # 403330 <_IO_stdin_used+0x550>
  401cb8:	b8 00 00 00 00       	mov    $0x0,%eax
  401cbd:	e8 9e ef ff ff       	callq  400c60 <printf@plt>
  401cc2:	48 8b 35 77 34 20 00 	mov    0x203477(%rip),%rsi        # 605140 <user_id>
  401cc9:	48 8d 3d 1c 15 00 00 	lea    0x151c(%rip),%rdi        # 4031ec <_IO_stdin_used+0x40c>
  401cd0:	b8 00 00 00 00       	mov    $0x0,%eax
  401cd5:	e8 86 ef ff ff       	callq  400c60 <printf@plt>
  401cda:	48 8b 35 6f 34 20 00 	mov    0x20346f(%rip),%rsi        # 605150 <course>
  401ce1:	48 8d 3d 11 15 00 00 	lea    0x1511(%rip),%rdi        # 4031f9 <_IO_stdin_used+0x419>
  401ce8:	b8 00 00 00 00       	mov    $0x0,%eax
  401ced:	e8 6e ef ff ff       	callq  400c60 <printf@plt>
  401cf2:	48 8b 35 4f 34 20 00 	mov    0x20344f(%rip),%rsi        # 605148 <lab>
  401cf9:	48 8d 3d 05 15 00 00 	lea    0x1505(%rip),%rdi        # 403205 <_IO_stdin_used+0x425>
  401d00:	b8 00 00 00 00       	mov    $0x0,%eax
  401d05:	e8 56 ef ff ff       	callq  400c60 <printf@plt>
  401d0a:	48 8d b4 24 00 20 00 	lea    0x2000(%rsp),%rsi
  401d11:	00 
  401d12:	48 8d 3d f5 14 00 00 	lea    0x14f5(%rip),%rdi        # 40320e <_IO_stdin_used+0x42e>
  401d19:	b8 00 00 00 00       	mov    $0x0,%eax
  401d1e:	e8 3d ef ff ff       	callq  400c60 <printf@plt>
  401d23:	e9 1d ff ff ff       	jmpq   401c45 <notify_server+0xe2>

0000000000401d28 <validate>:
  401d28:	53                   	push   %rbx
  401d29:	89 fb                	mov    %edi,%ebx
  401d2b:	83 3d d6 37 20 00 00 	cmpl   $0x0,0x2037d6(%rip)        # 605508 <is_checker>
  401d32:	74 68                	je     401d9c <validate+0x74>
  401d34:	39 3d c2 37 20 00    	cmp    %edi,0x2037c2(%rip)        # 6054fc <vlevel>
  401d3a:	75 2d                	jne    401d69 <validate+0x41>
  401d3c:	8b 35 b6 37 20 00    	mov    0x2037b6(%rip),%esi        # 6054f8 <check_level>
  401d42:	39 f7                	cmp    %esi,%edi
  401d44:	75 39                	jne    401d7f <validate+0x57>
  401d46:	0f be 35 db 43 20 00 	movsbl 0x2043db(%rip),%esi        # 606128 <target_prefix>
  401d4d:	48 8d 0d cc 37 20 00 	lea    0x2037cc(%rip),%rcx        # 605520 <gets_buf>
  401d54:	89 fa                	mov    %edi,%edx
  401d56:	48 8d 3d db 14 00 00 	lea    0x14db(%rip),%rdi        # 403238 <_IO_stdin_used+0x458>
  401d5d:	b8 00 00 00 00       	mov    $0x0,%eax
  401d62:	e8 f9 ee ff ff       	callq  400c60 <printf@plt>
  401d67:	5b                   	pop    %rbx
  401d68:	c3                   	retq   
  401d69:	48 8d 3d aa 14 00 00 	lea    0x14aa(%rip),%rdi        # 40321a <_IO_stdin_used+0x43a>
  401d70:	e8 bb ee ff ff       	callq  400c30 <puts@plt>
  401d75:	b8 00 00 00 00       	mov    $0x0,%eax
  401d7a:	e8 5f fd ff ff       	callq  401ade <check_fail>
  401d7f:	89 fa                	mov    %edi,%edx
  401d81:	48 8d 3d d0 15 00 00 	lea    0x15d0(%rip),%rdi        # 403358 <_IO_stdin_used+0x578>
  401d88:	b8 00 00 00 00       	mov    $0x0,%eax
  401d8d:	e8 ce ee ff ff       	callq  400c60 <printf@plt>
  401d92:	b8 00 00 00 00       	mov    $0x0,%eax
  401d97:	e8 42 fd ff ff       	callq  401ade <check_fail>
  401d9c:	3b 3d 5a 37 20 00    	cmp    0x20375a(%rip),%edi        # 6054fc <vlevel>
  401da2:	74 1a                	je     401dbe <validate+0x96>
  401da4:	48 8d 3d 6f 14 00 00 	lea    0x146f(%rip),%rdi        # 40321a <_IO_stdin_used+0x43a>
  401dab:	e8 80 ee ff ff       	callq  400c30 <puts@plt>
  401db0:	89 de                	mov    %ebx,%esi
  401db2:	bf 00 00 00 00       	mov    $0x0,%edi
  401db7:	e8 a7 fd ff ff       	callq  401b63 <notify_server>
  401dbc:	eb a9                	jmp    401d67 <validate+0x3f>
  401dbe:	0f be 15 63 43 20 00 	movsbl 0x204363(%rip),%edx        # 606128 <target_prefix>
  401dc5:	89 fe                	mov    %edi,%esi
  401dc7:	48 8d 3d b2 15 00 00 	lea    0x15b2(%rip),%rdi        # 403380 <_IO_stdin_used+0x5a0>
  401dce:	b8 00 00 00 00       	mov    $0x0,%eax
  401dd3:	e8 88 ee ff ff       	callq  400c60 <printf@plt>
  401dd8:	89 de                	mov    %ebx,%esi
  401dda:	bf 01 00 00 00       	mov    $0x1,%edi
  401ddf:	e8 7f fd ff ff       	callq  401b63 <notify_server>
  401de4:	eb 81                	jmp    401d67 <validate+0x3f>

0000000000401de6 <fail>:
  401de6:	48 83 ec 08          	sub    $0x8,%rsp
  401dea:	83 3d 17 37 20 00 00 	cmpl   $0x0,0x203717(%rip)        # 605508 <is_checker>
  401df1:	75 11                	jne    401e04 <fail+0x1e>
  401df3:	89 fe                	mov    %edi,%esi
  401df5:	bf 00 00 00 00       	mov    $0x0,%edi
  401dfa:	e8 64 fd ff ff       	callq  401b63 <notify_server>
  401dff:	48 83 c4 08          	add    $0x8,%rsp
  401e03:	c3                   	retq   
  401e04:	b8 00 00 00 00       	mov    $0x0,%eax
  401e09:	e8 d0 fc ff ff       	callq  401ade <check_fail>

0000000000401e0e <bushandler>:
  401e0e:	48 83 ec 08          	sub    $0x8,%rsp
  401e12:	83 3d ef 36 20 00 00 	cmpl   $0x0,0x2036ef(%rip)        # 605508 <is_checker>
  401e19:	74 16                	je     401e31 <bushandler+0x23>
  401e1b:	48 8d 3d 2b 14 00 00 	lea    0x142b(%rip),%rdi        # 40324d <_IO_stdin_used+0x46d>
  401e22:	e8 09 ee ff ff       	callq  400c30 <puts@plt>
  401e27:	b8 00 00 00 00       	mov    $0x0,%eax
  401e2c:	e8 ad fc ff ff       	callq  401ade <check_fail>
  401e31:	48 8d 3d 80 15 00 00 	lea    0x1580(%rip),%rdi        # 4033b8 <_IO_stdin_used+0x5d8>
  401e38:	e8 f3 ed ff ff       	callq  400c30 <puts@plt>
  401e3d:	48 8d 3d 13 14 00 00 	lea    0x1413(%rip),%rdi        # 403257 <_IO_stdin_used+0x477>
  401e44:	e8 e7 ed ff ff       	callq  400c30 <puts@plt>
  401e49:	be 00 00 00 00       	mov    $0x0,%esi
  401e4e:	bf 00 00 00 00       	mov    $0x0,%edi
  401e53:	e8 0b fd ff ff       	callq  401b63 <notify_server>
  401e58:	bf 01 00 00 00       	mov    $0x1,%edi
  401e5d:	e8 4e ef ff ff       	callq  400db0 <exit@plt>

0000000000401e62 <seghandler>:
  401e62:	48 83 ec 08          	sub    $0x8,%rsp
  401e66:	83 3d 9b 36 20 00 00 	cmpl   $0x0,0x20369b(%rip)        # 605508 <is_checker>
  401e6d:	74 16                	je     401e85 <seghandler+0x23>
  401e6f:	48 8d 3d f7 13 00 00 	lea    0x13f7(%rip),%rdi        # 40326d <_IO_stdin_used+0x48d>
  401e76:	e8 b5 ed ff ff       	callq  400c30 <puts@plt>
  401e7b:	b8 00 00 00 00       	mov    $0x0,%eax
  401e80:	e8 59 fc ff ff       	callq  401ade <check_fail>
  401e85:	48 8d 3d 4c 15 00 00 	lea    0x154c(%rip),%rdi        # 4033d8 <_IO_stdin_used+0x5f8>
  401e8c:	e8 9f ed ff ff       	callq  400c30 <puts@plt>
  401e91:	48 8d 3d bf 13 00 00 	lea    0x13bf(%rip),%rdi        # 403257 <_IO_stdin_used+0x477>
  401e98:	e8 93 ed ff ff       	callq  400c30 <puts@plt>
  401e9d:	be 00 00 00 00       	mov    $0x0,%esi
  401ea2:	bf 00 00 00 00       	mov    $0x0,%edi
  401ea7:	e8 b7 fc ff ff       	callq  401b63 <notify_server>
  401eac:	bf 01 00 00 00       	mov    $0x1,%edi
  401eb1:	e8 fa ee ff ff       	callq  400db0 <exit@plt>

0000000000401eb6 <illegalhandler>:
  401eb6:	48 83 ec 08          	sub    $0x8,%rsp
  401eba:	83 3d 47 36 20 00 00 	cmpl   $0x0,0x203647(%rip)        # 605508 <is_checker>
  401ec1:	74 16                	je     401ed9 <illegalhandler+0x23>
  401ec3:	48 8d 3d b6 13 00 00 	lea    0x13b6(%rip),%rdi        # 403280 <_IO_stdin_used+0x4a0>
  401eca:	e8 61 ed ff ff       	callq  400c30 <puts@plt>
  401ecf:	b8 00 00 00 00       	mov    $0x0,%eax
  401ed4:	e8 05 fc ff ff       	callq  401ade <check_fail>
  401ed9:	48 8d 3d 20 15 00 00 	lea    0x1520(%rip),%rdi        # 403400 <_IO_stdin_used+0x620>
  401ee0:	e8 4b ed ff ff       	callq  400c30 <puts@plt>
  401ee5:	48 8d 3d 6b 13 00 00 	lea    0x136b(%rip),%rdi        # 403257 <_IO_stdin_used+0x477>
  401eec:	e8 3f ed ff ff       	callq  400c30 <puts@plt>
  401ef1:	be 00 00 00 00       	mov    $0x0,%esi
  401ef6:	bf 00 00 00 00       	mov    $0x0,%edi
  401efb:	e8 63 fc ff ff       	callq  401b63 <notify_server>
  401f00:	bf 01 00 00 00       	mov    $0x1,%edi
  401f05:	e8 a6 ee ff ff       	callq  400db0 <exit@plt>

0000000000401f0a <sigalrmhandler>:
  401f0a:	48 83 ec 08          	sub    $0x8,%rsp
  401f0e:	83 3d f3 35 20 00 00 	cmpl   $0x0,0x2035f3(%rip)        # 605508 <is_checker>
  401f15:	74 16                	je     401f2d <sigalrmhandler+0x23>
  401f17:	48 8d 3d 76 13 00 00 	lea    0x1376(%rip),%rdi        # 403294 <_IO_stdin_used+0x4b4>
  401f1e:	e8 0d ed ff ff       	callq  400c30 <puts@plt>
  401f23:	b8 00 00 00 00       	mov    $0x0,%eax
  401f28:	e8 b1 fb ff ff       	callq  401ade <check_fail>
  401f2d:	be 05 00 00 00       	mov    $0x5,%esi
  401f32:	48 8d 3d f7 14 00 00 	lea    0x14f7(%rip),%rdi        # 403430 <_IO_stdin_used+0x650>
  401f39:	b8 00 00 00 00       	mov    $0x0,%eax
  401f3e:	e8 1d ed ff ff       	callq  400c60 <printf@plt>
  401f43:	be 00 00 00 00       	mov    $0x0,%esi
  401f48:	bf 00 00 00 00       	mov    $0x0,%edi
  401f4d:	e8 11 fc ff ff       	callq  401b63 <notify_server>
  401f52:	bf 01 00 00 00       	mov    $0x1,%edi
  401f57:	e8 54 ee ff ff       	callq  400db0 <exit@plt>

0000000000401f5c <launch>:
  401f5c:	55                   	push   %rbp
  401f5d:	48 89 e5             	mov    %rsp,%rbp
  401f60:	48 89 fa             	mov    %rdi,%rdx
  401f63:	48 8d 47 1e          	lea    0x1e(%rdi),%rax
  401f67:	48 83 e0 f0          	and    $0xfffffffffffffff0,%rax
  401f6b:	48 29 c4             	sub    %rax,%rsp
  401f6e:	48 8d 7c 24 0f       	lea    0xf(%rsp),%rdi
  401f73:	48 83 e7 f0          	and    $0xfffffffffffffff0,%rdi
  401f77:	be f4 00 00 00       	mov    $0xf4,%esi
  401f7c:	e8 ef ec ff ff       	callq  400c70 <memset@plt>
  401f81:	48 8b 05 18 35 20 00 	mov    0x203518(%rip),%rax        # 6054a0 <stdin@@GLIBC_2.2.5>
  401f88:	48 39 05 61 35 20 00 	cmp    %rax,0x203561(%rip)        # 6054f0 <infile>
  401f8f:	74 2b                	je     401fbc <launch+0x60>
  401f91:	c7 05 61 35 20 00 00 	movl   $0x0,0x203561(%rip)        # 6054fc <vlevel>
  401f98:	00 00 00 
  401f9b:	b8 00 00 00 00       	mov    $0x0,%eax
  401fa0:	e8 7a f9 ff ff       	callq  40191f <test>
  401fa5:	83 3d 5c 35 20 00 00 	cmpl   $0x0,0x20355c(%rip)        # 605508 <is_checker>
  401fac:	75 21                	jne    401fcf <launch+0x73>
  401fae:	48 8d 3d ff 12 00 00 	lea    0x12ff(%rip),%rdi        # 4032b4 <_IO_stdin_used+0x4d4>
  401fb5:	e8 76 ec ff ff       	callq  400c30 <puts@plt>
  401fba:	c9                   	leaveq 
  401fbb:	c3                   	retq   
  401fbc:	48 8d 3d d9 12 00 00 	lea    0x12d9(%rip),%rdi        # 40329c <_IO_stdin_used+0x4bc>
  401fc3:	b8 00 00 00 00       	mov    $0x0,%eax
  401fc8:	e8 93 ec ff ff       	callq  400c60 <printf@plt>
  401fcd:	eb c2                	jmp    401f91 <launch+0x35>
  401fcf:	48 8d 3d d3 12 00 00 	lea    0x12d3(%rip),%rdi        # 4032a9 <_IO_stdin_used+0x4c9>
  401fd6:	e8 55 ec ff ff       	callq  400c30 <puts@plt>
  401fdb:	b8 00 00 00 00       	mov    $0x0,%eax
  401fe0:	e8 f9 fa ff ff       	callq  401ade <check_fail>

0000000000401fe5 <stable_launch>:
  401fe5:	53                   	push   %rbx
  401fe6:	48 89 3d fb 34 20 00 	mov    %rdi,0x2034fb(%rip)        # 6054e8 <global_offset>
  401fed:	41 b9 00 00 00 00    	mov    $0x0,%r9d
  401ff3:	41 b8 00 00 00 00    	mov    $0x0,%r8d
  401ff9:	b9 32 01 00 00       	mov    $0x132,%ecx
  401ffe:	ba 07 00 00 00       	mov    $0x7,%edx
  402003:	be 00 00 10 00       	mov    $0x100000,%esi
  402008:	bf 00 60 58 55       	mov    $0x55586000,%edi
  40200d:	e8 3e ec ff ff       	callq  400c50 <mmap@plt>
  402012:	48 89 c3             	mov    %rax,%rbx
  402015:	48 3d 00 60 58 55    	cmp    $0x55586000,%rax
  40201b:	75 43                	jne    402060 <stable_launch+0x7b>
  40201d:	48 8d 90 f8 ff 0f 00 	lea    0xffff8(%rax),%rdx
  402024:	48 89 15 05 41 20 00 	mov    %rdx,0x204105(%rip)        # 606130 <stack_top>
  40202b:	48 89 e0             	mov    %rsp,%rax
  40202e:	48 89 d4             	mov    %rdx,%rsp
  402031:	48 89 c2             	mov    %rax,%rdx
  402034:	48 89 15 a5 34 20 00 	mov    %rdx,0x2034a5(%rip)        # 6054e0 <global_save_stack>
  40203b:	48 8b 3d a6 34 20 00 	mov    0x2034a6(%rip),%rdi        # 6054e8 <global_offset>
  402042:	e8 15 ff ff ff       	callq  401f5c <launch>
  402047:	48 8b 05 92 34 20 00 	mov    0x203492(%rip),%rax        # 6054e0 <global_save_stack>
  40204e:	48 89 c4             	mov    %rax,%rsp
  402051:	be 00 00 10 00       	mov    $0x100000,%esi
  402056:	48 89 df             	mov    %rbx,%rdi
  402059:	e8 e2 ec ff ff       	callq  400d40 <munmap@plt>
  40205e:	5b                   	pop    %rbx
  40205f:	c3                   	retq   
  402060:	be 00 00 10 00       	mov    $0x100000,%esi
  402065:	48 89 c7             	mov    %rax,%rdi
  402068:	e8 d3 ec ff ff       	callq  400d40 <munmap@plt>
  40206d:	ba 00 60 58 55       	mov    $0x55586000,%edx
  402072:	48 8d 35 ef 13 00 00 	lea    0x13ef(%rip),%rsi        # 403468 <_IO_stdin_used+0x688>
  402079:	48 8b 3d 40 34 20 00 	mov    0x203440(%rip),%rdi        # 6054c0 <stderr@@GLIBC_2.2.5>
  402080:	b8 00 00 00 00       	mov    $0x0,%eax
  402085:	e8 46 ec ff ff       	callq  400cd0 <fprintf@plt>
  40208a:	bf 01 00 00 00       	mov    $0x1,%edi
  40208f:	e8 1c ed ff ff       	callq  400db0 <exit@plt>

0000000000402094 <rio_readinitb>:
  402094:	89 37                	mov    %esi,(%rdi)
  402096:	c7 47 04 00 00 00 00 	movl   $0x0,0x4(%rdi)
  40209d:	48 8d 47 10          	lea    0x10(%rdi),%rax
  4020a1:	48 89 47 08          	mov    %rax,0x8(%rdi)
  4020a5:	c3                   	retq   

00000000004020a6 <sigalrm_handler>:
  4020a6:	48 83 ec 08          	sub    $0x8,%rsp
  4020aa:	ba 00 00 00 00       	mov    $0x0,%edx
  4020af:	48 8d 35 ea 13 00 00 	lea    0x13ea(%rip),%rsi        # 4034a0 <trans_char+0x10>
  4020b6:	48 8b 3d 03 34 20 00 	mov    0x203403(%rip),%rdi        # 6054c0 <stderr@@GLIBC_2.2.5>
  4020bd:	b8 00 00 00 00       	mov    $0x0,%eax
  4020c2:	e8 09 ec ff ff       	callq  400cd0 <fprintf@plt>
  4020c7:	bf 01 00 00 00       	mov    $0x1,%edi
  4020cc:	e8 df ec ff ff       	callq  400db0 <exit@plt>

00000000004020d1 <urlencode>:
  4020d1:	41 54                	push   %r12
  4020d3:	55                   	push   %rbp
  4020d4:	53                   	push   %rbx
  4020d5:	48 83 ec 10          	sub    $0x10,%rsp
  4020d9:	48 89 fb             	mov    %rdi,%rbx
  4020dc:	48 89 f5             	mov    %rsi,%rbp
  4020df:	b8 00 00 00 00       	mov    $0x0,%eax
  4020e4:	48 c7 c1 ff ff ff ff 	mov    $0xffffffffffffffff,%rcx
  4020eb:	f2 ae                	repnz scas %es:(%rdi),%al
  4020ed:	48 f7 d1             	not    %rcx
  4020f0:	8d 41 ff             	lea    -0x1(%rcx),%eax
  4020f3:	eb 0e                	jmp    402103 <urlencode+0x32>
  4020f5:	88 55 00             	mov    %dl,0x0(%rbp)
  4020f8:	48 8d 6d 01          	lea    0x1(%rbp),%rbp
  4020fc:	48 83 c3 01          	add    $0x1,%rbx
  402100:	44 89 e0             	mov    %r12d,%eax
  402103:	44 8d 60 ff          	lea    -0x1(%rax),%r12d
  402107:	85 c0                	test   %eax,%eax
  402109:	0f 84 95 00 00 00    	je     4021a4 <urlencode+0xd3>
  40210f:	0f b6 13             	movzbl (%rbx),%edx
  402112:	80 fa 2a             	cmp    $0x2a,%dl
  402115:	0f 94 c1             	sete   %cl
  402118:	80 fa 2d             	cmp    $0x2d,%dl
  40211b:	0f 94 c0             	sete   %al
  40211e:	08 c1                	or     %al,%cl
  402120:	75 d3                	jne    4020f5 <urlencode+0x24>
  402122:	80 fa 2e             	cmp    $0x2e,%dl
  402125:	74 ce                	je     4020f5 <urlencode+0x24>
  402127:	80 fa 5f             	cmp    $0x5f,%dl
  40212a:	74 c9                	je     4020f5 <urlencode+0x24>
  40212c:	8d 42 d0             	lea    -0x30(%rdx),%eax
  40212f:	3c 09                	cmp    $0x9,%al
  402131:	76 c2                	jbe    4020f5 <urlencode+0x24>
  402133:	8d 42 bf             	lea    -0x41(%rdx),%eax
  402136:	3c 19                	cmp    $0x19,%al
  402138:	76 bb                	jbe    4020f5 <urlencode+0x24>
  40213a:	8d 42 9f             	lea    -0x61(%rdx),%eax
  40213d:	3c 19                	cmp    $0x19,%al
  40213f:	76 b4                	jbe    4020f5 <urlencode+0x24>
  402141:	80 fa 20             	cmp    $0x20,%dl
  402144:	74 4c                	je     402192 <urlencode+0xc1>
  402146:	8d 42 e0             	lea    -0x20(%rdx),%eax
  402149:	3c 5f                	cmp    $0x5f,%al
  40214b:	0f 96 c1             	setbe  %cl
  40214e:	80 fa 09             	cmp    $0x9,%dl
  402151:	0f 94 c0             	sete   %al
  402154:	08 c1                	or     %al,%cl
  402156:	74 47                	je     40219f <urlencode+0xce>
  402158:	0f b6 d2             	movzbl %dl,%edx
  40215b:	48 8d 7c 24 08       	lea    0x8(%rsp),%rdi
  402160:	48 8d 35 d1 13 00 00 	lea    0x13d1(%rip),%rsi        # 403538 <trans_char+0xa8>
  402167:	b8 00 00 00 00       	mov    $0x0,%eax
  40216c:	e8 2f ec ff ff       	callq  400da0 <sprintf@plt>
  402171:	0f b6 44 24 08       	movzbl 0x8(%rsp),%eax
  402176:	88 45 00             	mov    %al,0x0(%rbp)
  402179:	0f b6 44 24 09       	movzbl 0x9(%rsp),%eax
  40217e:	88 45 01             	mov    %al,0x1(%rbp)
  402181:	0f b6 44 24 0a       	movzbl 0xa(%rsp),%eax
  402186:	88 45 02             	mov    %al,0x2(%rbp)
  402189:	48 8d 6d 03          	lea    0x3(%rbp),%rbp
  40218d:	e9 6a ff ff ff       	jmpq   4020fc <urlencode+0x2b>
  402192:	c6 45 00 2b          	movb   $0x2b,0x0(%rbp)
  402196:	48 8d 6d 01          	lea    0x1(%rbp),%rbp
  40219a:	e9 5d ff ff ff       	jmpq   4020fc <urlencode+0x2b>
  40219f:	b8 ff ff ff ff       	mov    $0xffffffff,%eax
  4021a4:	48 83 c4 10          	add    $0x10,%rsp
  4021a8:	5b                   	pop    %rbx
  4021a9:	5d                   	pop    %rbp
  4021aa:	41 5c                	pop    %r12
  4021ac:	c3                   	retq   

00000000004021ad <rio_writen>:
  4021ad:	41 55                	push   %r13
  4021af:	41 54                	push   %r12
  4021b1:	55                   	push   %rbp
  4021b2:	53                   	push   %rbx
  4021b3:	48 83 ec 08          	sub    $0x8,%rsp
  4021b7:	41 89 fc             	mov    %edi,%r12d
  4021ba:	49 89 d5             	mov    %rdx,%r13
  4021bd:	48 89 f5             	mov    %rsi,%rbp
  4021c0:	48 89 d3             	mov    %rdx,%rbx
  4021c3:	eb 06                	jmp    4021cb <rio_writen+0x1e>
  4021c5:	48 29 c3             	sub    %rax,%rbx
  4021c8:	48 01 c5             	add    %rax,%rbp
  4021cb:	48 85 db             	test   %rbx,%rbx
  4021ce:	74 24                	je     4021f4 <rio_writen+0x47>
  4021d0:	48 89 da             	mov    %rbx,%rdx
  4021d3:	48 89 ee             	mov    %rbp,%rsi
  4021d6:	44 89 e7             	mov    %r12d,%edi
  4021d9:	e8 62 ea ff ff       	callq  400c40 <write@plt>
  4021de:	48 85 c0             	test   %rax,%rax
  4021e1:	7f e2                	jg     4021c5 <rio_writen+0x18>
  4021e3:	e8 08 ea ff ff       	callq  400bf0 <__errno_location@plt>
  4021e8:	83 38 04             	cmpl   $0x4,(%rax)
  4021eb:	75 15                	jne    402202 <rio_writen+0x55>
  4021ed:	b8 00 00 00 00       	mov    $0x0,%eax
  4021f2:	eb d1                	jmp    4021c5 <rio_writen+0x18>
  4021f4:	4c 89 e8             	mov    %r13,%rax
  4021f7:	48 83 c4 08          	add    $0x8,%rsp
  4021fb:	5b                   	pop    %rbx
  4021fc:	5d                   	pop    %rbp
  4021fd:	41 5c                	pop    %r12
  4021ff:	41 5d                	pop    %r13
  402201:	c3                   	retq   
  402202:	48 c7 c0 ff ff ff ff 	mov    $0xffffffffffffffff,%rax
  402209:	eb ec                	jmp    4021f7 <rio_writen+0x4a>

000000000040220b <rio_read>:
  40220b:	41 55                	push   %r13
  40220d:	41 54                	push   %r12
  40220f:	55                   	push   %rbp
  402210:	53                   	push   %rbx
  402211:	48 83 ec 08          	sub    $0x8,%rsp
  402215:	48 89 fb             	mov    %rdi,%rbx
  402218:	49 89 f5             	mov    %rsi,%r13
  40221b:	49 89 d4             	mov    %rdx,%r12
  40221e:	eb 0a                	jmp    40222a <rio_read+0x1f>
  402220:	e8 cb e9 ff ff       	callq  400bf0 <__errno_location@plt>
  402225:	83 38 04             	cmpl   $0x4,(%rax)
  402228:	75 5c                	jne    402286 <rio_read+0x7b>
  40222a:	8b 6b 04             	mov    0x4(%rbx),%ebp
  40222d:	85 ed                	test   %ebp,%ebp
  40222f:	7f 24                	jg     402255 <rio_read+0x4a>
  402231:	48 8d 6b 10          	lea    0x10(%rbx),%rbp
  402235:	ba 00 20 00 00       	mov    $0x2000,%edx
  40223a:	48 89 ee             	mov    %rbp,%rsi
  40223d:	8b 3b                	mov    (%rbx),%edi
  40223f:	e8 5c ea ff ff       	callq  400ca0 <read@plt>
  402244:	89 43 04             	mov    %eax,0x4(%rbx)
  402247:	85 c0                	test   %eax,%eax
  402249:	78 d5                	js     402220 <rio_read+0x15>
  40224b:	85 c0                	test   %eax,%eax
  40224d:	74 40                	je     40228f <rio_read+0x84>
  40224f:	48 89 6b 08          	mov    %rbp,0x8(%rbx)
  402253:	eb d5                	jmp    40222a <rio_read+0x1f>
  402255:	89 e8                	mov    %ebp,%eax
  402257:	49 39 c4             	cmp    %rax,%r12
  40225a:	77 03                	ja     40225f <rio_read+0x54>
  40225c:	44 89 e5             	mov    %r12d,%ebp
  40225f:	4c 63 e5             	movslq %ebp,%r12
  402262:	48 8b 73 08          	mov    0x8(%rbx),%rsi
  402266:	4c 89 e2             	mov    %r12,%rdx
  402269:	4c 89 ef             	mov    %r13,%rdi
  40226c:	e8 7f ea ff ff       	callq  400cf0 <memcpy@plt>
  402271:	4c 01 63 08          	add    %r12,0x8(%rbx)
  402275:	29 6b 04             	sub    %ebp,0x4(%rbx)
  402278:	4c 89 e0             	mov    %r12,%rax
  40227b:	48 83 c4 08          	add    $0x8,%rsp
  40227f:	5b                   	pop    %rbx
  402280:	5d                   	pop    %rbp
  402281:	41 5c                	pop    %r12
  402283:	41 5d                	pop    %r13
  402285:	c3                   	retq   
  402286:	48 c7 c0 ff ff ff ff 	mov    $0xffffffffffffffff,%rax
  40228d:	eb ec                	jmp    40227b <rio_read+0x70>
  40228f:	b8 00 00 00 00       	mov    $0x0,%eax
  402294:	eb e5                	jmp    40227b <rio_read+0x70>

0000000000402296 <rio_readlineb>:
  402296:	41 55                	push   %r13
  402298:	41 54                	push   %r12
  40229a:	55                   	push   %rbp
  40229b:	53                   	push   %rbx
  40229c:	48 83 ec 18          	sub    $0x18,%rsp
  4022a0:	49 89 fd             	mov    %rdi,%r13
  4022a3:	49 89 d4             	mov    %rdx,%r12
  4022a6:	48 89 f5             	mov    %rsi,%rbp
  4022a9:	bb 01 00 00 00       	mov    $0x1,%ebx
  4022ae:	4c 39 e3             	cmp    %r12,%rbx
  4022b1:	73 47                	jae    4022fa <rio_readlineb+0x64>
  4022b3:	48 8d 74 24 0f       	lea    0xf(%rsp),%rsi
  4022b8:	ba 01 00 00 00       	mov    $0x1,%edx
  4022bd:	4c 89 ef             	mov    %r13,%rdi
  4022c0:	e8 46 ff ff ff       	callq  40220b <rio_read>
  4022c5:	83 f8 01             	cmp    $0x1,%eax
  4022c8:	75 1c                	jne    4022e6 <rio_readlineb+0x50>
  4022ca:	48 8d 45 01          	lea    0x1(%rbp),%rax
  4022ce:	0f b6 54 24 0f       	movzbl 0xf(%rsp),%edx
  4022d3:	88 55 00             	mov    %dl,0x0(%rbp)
  4022d6:	80 7c 24 0f 0a       	cmpb   $0xa,0xf(%rsp)
  4022db:	74 1a                	je     4022f7 <rio_readlineb+0x61>
  4022dd:	48 83 c3 01          	add    $0x1,%rbx
  4022e1:	48 89 c5             	mov    %rax,%rbp
  4022e4:	eb c8                	jmp    4022ae <rio_readlineb+0x18>
  4022e6:	85 c0                	test   %eax,%eax
  4022e8:	75 22                	jne    40230c <rio_readlineb+0x76>
  4022ea:	48 83 fb 01          	cmp    $0x1,%rbx
  4022ee:	75 0a                	jne    4022fa <rio_readlineb+0x64>
  4022f0:	b8 00 00 00 00       	mov    $0x0,%eax
  4022f5:	eb 0a                	jmp    402301 <rio_readlineb+0x6b>
  4022f7:	48 89 c5             	mov    %rax,%rbp
  4022fa:	c6 45 00 00          	movb   $0x0,0x0(%rbp)
  4022fe:	48 89 d8             	mov    %rbx,%rax
  402301:	48 83 c4 18          	add    $0x18,%rsp
  402305:	5b                   	pop    %rbx
  402306:	5d                   	pop    %rbp
  402307:	41 5c                	pop    %r12
  402309:	41 5d                	pop    %r13
  40230b:	c3                   	retq   
  40230c:	48 c7 c0 ff ff ff ff 	mov    $0xffffffffffffffff,%rax
  402313:	eb ec                	jmp    402301 <rio_readlineb+0x6b>

0000000000402315 <submitr>:
  402315:	41 57                	push   %r15
  402317:	41 56                	push   %r14
  402319:	41 55                	push   %r13
  40231b:	41 54                	push   %r12
  40231d:	55                   	push   %rbp
  40231e:	53                   	push   %rbx
  40231f:	48 81 ec 58 a0 00 00 	sub    $0xa058,%rsp
  402326:	49 89 fd             	mov    %rdi,%r13
  402329:	89 74 24 14          	mov    %esi,0x14(%rsp)
  40232d:	49 89 d7             	mov    %rdx,%r15
  402330:	48 89 4c 24 08       	mov    %rcx,0x8(%rsp)
  402335:	4c 89 44 24 18       	mov    %r8,0x18(%rsp)
  40233a:	4d 89 ce             	mov    %r9,%r14
  40233d:	48 8b 9c 24 90 a0 00 	mov    0xa090(%rsp),%rbx
  402344:	00 
  402345:	c7 84 24 2c 20 00 00 	movl   $0x0,0x202c(%rsp)
  40234c:	00 00 00 00 
  402350:	ba 00 00 00 00       	mov    $0x0,%edx
  402355:	be 01 00 00 00       	mov    $0x1,%esi
  40235a:	bf 02 00 00 00       	mov    $0x2,%edi
  40235f:	e8 6c ea ff ff       	callq  400dd0 <socket@plt>
  402364:	85 c0                	test   %eax,%eax
  402366:	0f 88 ca 01 00 00    	js     402536 <submitr+0x221>
  40236c:	89 c5                	mov    %eax,%ebp
  40236e:	4c 89 ef             	mov    %r13,%rdi
  402371:	e8 4a e9 ff ff       	callq  400cc0 <gethostbyname@plt>
  402376:	48 85 c0             	test   %rax,%rax
  402379:	0f 84 05 02 00 00    	je     402584 <submitr+0x26f>
  40237f:	4c 8d a4 24 40 a0 00 	lea    0xa040(%rsp),%r12
  402386:	00 
  402387:	48 c7 84 24 40 a0 00 	movq   $0x0,0xa040(%rsp)
  40238e:	00 00 00 00 00 
  402393:	48 c7 84 24 48 a0 00 	movq   $0x0,0xa048(%rsp)
  40239a:	00 00 00 00 00 
  40239f:	66 c7 84 24 40 a0 00 	movw   $0x2,0xa040(%rsp)
  4023a6:	00 02 00 
  4023a9:	48 8b 48 18          	mov    0x18(%rax),%rcx
  4023ad:	48 63 50 14          	movslq 0x14(%rax),%rdx
  4023b1:	48 8d b4 24 44 a0 00 	lea    0xa044(%rsp),%rsi
  4023b8:	00 
  4023b9:	48 8b 39             	mov    (%rcx),%rdi
  4023bc:	e8 8f e9 ff ff       	callq  400d50 <bcopy@plt>
  4023c1:	0f b7 44 24 14       	movzwl 0x14(%rsp),%eax
  4023c6:	66 c1 c8 08          	ror    $0x8,%ax
  4023ca:	66 89 84 24 42 a0 00 	mov    %ax,0xa042(%rsp)
  4023d1:	00 
  4023d2:	ba 10 00 00 00       	mov    $0x10,%edx
  4023d7:	4c 89 e6             	mov    %r12,%rsi
  4023da:	89 ef                	mov    %ebp,%edi
  4023dc:	e8 df e9 ff ff       	callq  400dc0 <connect@plt>
  4023e1:	85 c0                	test   %eax,%eax
  4023e3:	0f 88 02 02 00 00    	js     4025eb <submitr+0x2d6>
  4023e9:	48 c7 c6 ff ff ff ff 	mov    $0xffffffffffffffff,%rsi
  4023f0:	b8 00 00 00 00       	mov    $0x0,%eax
  4023f5:	48 89 f1             	mov    %rsi,%rcx
  4023f8:	4c 89 f7             	mov    %r14,%rdi
  4023fb:	f2 ae                	repnz scas %es:(%rdi),%al
  4023fd:	48 f7 d1             	not    %rcx
  402400:	48 89 ca             	mov    %rcx,%rdx
  402403:	48 89 f1             	mov    %rsi,%rcx
  402406:	4c 89 ff             	mov    %r15,%rdi
  402409:	f2 ae                	repnz scas %es:(%rdi),%al
  40240b:	48 f7 d1             	not    %rcx
  40240e:	49 89 c8             	mov    %rcx,%r8
  402411:	48 89 f1             	mov    %rsi,%rcx
  402414:	48 8b 7c 24 08       	mov    0x8(%rsp),%rdi
  402419:	f2 ae                	repnz scas %es:(%rdi),%al
  40241b:	48 f7 d1             	not    %rcx
  40241e:	4d 8d 44 08 fe       	lea    -0x2(%r8,%rcx,1),%r8
  402423:	48 89 f1             	mov    %rsi,%rcx
  402426:	48 8b 7c 24 18       	mov    0x18(%rsp),%rdi
  40242b:	f2 ae                	repnz scas %es:(%rdi),%al
  40242d:	48 89 c8             	mov    %rcx,%rax
  402430:	48 f7 d0             	not    %rax
  402433:	49 8d 4c 00 ff       	lea    -0x1(%r8,%rax,1),%rcx
  402438:	48 8d 44 52 fd       	lea    -0x3(%rdx,%rdx,2),%rax
  40243d:	48 8d 84 01 80 00 00 	lea    0x80(%rcx,%rax,1),%rax
  402444:	00 
  402445:	48 3d 00 20 00 00    	cmp    $0x2000,%rax
  40244b:	0f 87 f3 01 00 00    	ja     402644 <submitr+0x32f>
  402451:	48 8d b4 24 30 40 00 	lea    0x4030(%rsp),%rsi
  402458:	00 
  402459:	b9 00 04 00 00       	mov    $0x400,%ecx
  40245e:	b8 00 00 00 00       	mov    $0x0,%eax
  402463:	48 89 f7             	mov    %rsi,%rdi
  402466:	f3 48 ab             	rep stos %rax,%es:(%rdi)
  402469:	4c 89 f7             	mov    %r14,%rdi
  40246c:	e8 60 fc ff ff       	callq  4020d1 <urlencode>
  402471:	85 c0                	test   %eax,%eax
  402473:	0f 88 3d 02 00 00    	js     4026b6 <submitr+0x3a1>
  402479:	4c 8d a4 24 30 60 00 	lea    0x6030(%rsp),%r12
  402480:	00 
  402481:	4d 89 e9             	mov    %r13,%r9
  402484:	4c 8d 84 24 30 40 00 	lea    0x4030(%rsp),%r8
  40248b:	00 
  40248c:	4c 89 f9             	mov    %r15,%rcx
  40248f:	48 8b 54 24 08       	mov    0x8(%rsp),%rdx
  402494:	48 8d 35 2d 10 00 00 	lea    0x102d(%rip),%rsi        # 4034c8 <trans_char+0x38>
  40249b:	4c 89 e7             	mov    %r12,%rdi
  40249e:	b8 00 00 00 00       	mov    $0x0,%eax
  4024a3:	e8 f8 e8 ff ff       	callq  400da0 <sprintf@plt>
  4024a8:	b8 00 00 00 00       	mov    $0x0,%eax
  4024ad:	48 c7 c1 ff ff ff ff 	mov    $0xffffffffffffffff,%rcx
  4024b4:	4c 89 e7             	mov    %r12,%rdi
  4024b7:	f2 ae                	repnz scas %es:(%rdi),%al
  4024b9:	48 f7 d1             	not    %rcx
  4024bc:	48 8d 51 ff          	lea    -0x1(%rcx),%rdx
  4024c0:	4c 89 e6             	mov    %r12,%rsi
  4024c3:	89 ef                	mov    %ebp,%edi
  4024c5:	e8 e3 fc ff ff       	callq  4021ad <rio_writen>
  4024ca:	48 85 c0             	test   %rax,%rax
  4024cd:	0f 88 6d 02 00 00    	js     402740 <submitr+0x42b>
  4024d3:	4c 8d a4 24 30 80 00 	lea    0x8030(%rsp),%r12
  4024da:	00 
  4024db:	89 ee                	mov    %ebp,%esi
  4024dd:	4c 89 e7             	mov    %r12,%rdi
  4024e0:	e8 af fb ff ff       	callq  402094 <rio_readinitb>
  4024e5:	48 8d b4 24 30 60 00 	lea    0x6030(%rsp),%rsi
  4024ec:	00 
  4024ed:	ba 00 20 00 00       	mov    $0x2000,%edx
  4024f2:	4c 89 e7             	mov    %r12,%rdi
  4024f5:	e8 9c fd ff ff       	callq  402296 <rio_readlineb>
  4024fa:	48 85 c0             	test   %rax,%rax
  4024fd:	0f 8e ab 02 00 00    	jle    4027ae <submitr+0x499>
  402503:	48 8d 8c 24 2c 20 00 	lea    0x202c(%rsp),%rcx
  40250a:	00 
  40250b:	48 8d 94 24 30 20 00 	lea    0x2030(%rsp),%rdx
  402512:	00 
  402513:	48 8d bc 24 30 60 00 	lea    0x6030(%rsp),%rdi
  40251a:	00 
  40251b:	4c 8d 44 24 20       	lea    0x20(%rsp),%r8
  402520:	48 8d 35 18 10 00 00 	lea    0x1018(%rip),%rsi        # 40353f <trans_char+0xaf>
  402527:	b8 00 00 00 00       	mov    $0x0,%eax
  40252c:	e8 ff e7 ff ff       	callq  400d30 <__isoc99_sscanf@plt>
  402531:	e9 9f 03 00 00       	jmpq   4028d5 <submitr+0x5c0>
  402536:	48 b8 45 72 72 6f 72 	movabs $0x43203a726f727245,%rax
  40253d:	3a 20 43 
  402540:	48 89 03             	mov    %rax,(%rbx)
  402543:	48 b8 6c 69 65 6e 74 	movabs $0x6e7520746e65696c,%rax
  40254a:	20 75 6e 
  40254d:	48 89 43 08          	mov    %rax,0x8(%rbx)
  402551:	48 b8 61 62 6c 65 20 	movabs $0x206f7420656c6261,%rax
  402558:	74 6f 20 
  40255b:	48 89 43 10          	mov    %rax,0x10(%rbx)
  40255f:	48 b8 63 72 65 61 74 	movabs $0x7320657461657263,%rax
  402566:	65 20 73 
  402569:	48 89 43 18          	mov    %rax,0x18(%rbx)
  40256d:	c7 43 20 6f 63 6b 65 	movl   $0x656b636f,0x20(%rbx)
  402574:	66 c7 43 24 74 00    	movw   $0x74,0x24(%rbx)
  40257a:	b8 ff ff ff ff       	mov    $0xffffffff,%eax
  40257f:	e9 18 03 00 00       	jmpq   40289c <submitr+0x587>
  402584:	48 b8 45 72 72 6f 72 	movabs $0x44203a726f727245,%rax
  40258b:	3a 20 44 
  40258e:	48 89 03             	mov    %rax,(%rbx)
  402591:	48 b8 4e 53 20 69 73 	movabs $0x6e7520736920534e,%rax
  402598:	20 75 6e 
  40259b:	48 89 43 08          	mov    %rax,0x8(%rbx)
  40259f:	48 b8 61 62 6c 65 20 	movabs $0x206f7420656c6261,%rax
  4025a6:	74 6f 20 
  4025a9:	48 89 43 10          	mov    %rax,0x10(%rbx)
  4025ad:	48 b8 72 65 73 6f 6c 	movabs $0x2065766c6f736572,%rax
  4025b4:	76 65 20 
  4025b7:	48 89 43 18          	mov    %rax,0x18(%rbx)
  4025bb:	48 b8 73 65 72 76 65 	movabs $0x6120726576726573,%rax
  4025c2:	72 20 61 
  4025c5:	48 89 43 20          	mov    %rax,0x20(%rbx)
  4025c9:	c7 43 28 64 64 72 65 	movl   $0x65726464,0x28(%rbx)
  4025d0:	66 c7 43 2c 73 73    	movw   $0x7373,0x2c(%rbx)
  4025d6:	c6 43 2e 00          	movb   $0x0,0x2e(%rbx)
  4025da:	89 ef                	mov    %ebp,%edi
  4025dc:	e8 af e6 ff ff       	callq  400c90 <close@plt>
  4025e1:	b8 ff ff ff ff       	mov    $0xffffffff,%eax
  4025e6:	e9 b1 02 00 00       	jmpq   40289c <submitr+0x587>
  4025eb:	48 b8 45 72 72 6f 72 	movabs $0x55203a726f727245,%rax
  4025f2:	3a 20 55 
  4025f5:	48 89 03             	mov    %rax,(%rbx)
  4025f8:	48 b8 6e 61 62 6c 65 	movabs $0x6f7420656c62616e,%rax
  4025ff:	20 74 6f 
  402602:	48 89 43 08          	mov    %rax,0x8(%rbx)
  402606:	48 b8 20 63 6f 6e 6e 	movabs $0x7463656e6e6f6320,%rax
  40260d:	65 63 74 
  402610:	48 89 43 10          	mov    %rax,0x10(%rbx)
  402614:	48 b8 20 74 6f 20 74 	movabs $0x20656874206f7420,%rax
  40261b:	68 65 20 
  40261e:	48 89 43 18          	mov    %rax,0x18(%rbx)
  402622:	c7 43 20 73 65 72 76 	movl   $0x76726573,0x20(%rbx)
  402629:	66 c7 43 24 65 72    	movw   $0x7265,0x24(%rbx)
  40262f:	c6 43 26 00          	movb   $0x0,0x26(%rbx)
  402633:	89 ef                	mov    %ebp,%edi
  402635:	e8 56 e6 ff ff       	callq  400c90 <close@plt>
  40263a:	b8 ff ff ff ff       	mov    $0xffffffff,%eax
  40263f:	e9 58 02 00 00       	jmpq   40289c <submitr+0x587>
  402644:	48 b8 45 72 72 6f 72 	movabs $0x52203a726f727245,%rax
  40264b:	3a 20 52 
  40264e:	48 89 03             	mov    %rax,(%rbx)
  402651:	48 b8 65 73 75 6c 74 	movabs $0x747320746c757365,%rax
  402658:	20 73 74 
  40265b:	48 89 43 08          	mov    %rax,0x8(%rbx)
  40265f:	48 b8 72 69 6e 67 20 	movabs $0x6f6f7420676e6972,%rax
  402666:	74 6f 6f 
  402669:	48 89 43 10          	mov    %rax,0x10(%rbx)
  40266d:	48 b8 20 6c 61 72 67 	movabs $0x202e656772616c20,%rax
  402674:	65 2e 20 
  402677:	48 89 43 18          	mov    %rax,0x18(%rbx)
  40267b:	48 b8 49 6e 63 72 65 	movabs $0x6573616572636e49,%rax
  402682:	61 73 65 
  402685:	48 89 43 20          	mov    %rax,0x20(%rbx)
  402689:	48 b8 20 53 55 42 4d 	movabs $0x5254494d42555320,%rax
  402690:	49 54 52 
  402693:	48 89 43 28          	mov    %rax,0x28(%rbx)
  402697:	48 b8 5f 4d 41 58 42 	movabs $0x46554258414d5f,%rax
  40269e:	55 46 00 
  4026a1:	48 89 43 30          	mov    %rax,0x30(%rbx)
  4026a5:	89 ef                	mov    %ebp,%edi
  4026a7:	e8 e4 e5 ff ff       	callq  400c90 <close@plt>
  4026ac:	b8 ff ff ff ff       	mov    $0xffffffff,%eax
  4026b1:	e9 e6 01 00 00       	jmpq   40289c <submitr+0x587>
  4026b6:	48 b8 45 72 72 6f 72 	movabs $0x52203a726f727245,%rax
  4026bd:	3a 20 52 
  4026c0:	48 89 03             	mov    %rax,(%rbx)
  4026c3:	48 b8 65 73 75 6c 74 	movabs $0x747320746c757365,%rax
  4026ca:	20 73 74 
  4026cd:	48 89 43 08          	mov    %rax,0x8(%rbx)
  4026d1:	48 b8 72 69 6e 67 20 	movabs $0x6e6f6320676e6972,%rax
  4026d8:	63 6f 6e 
  4026db:	48 89 43 10          	mov    %rax,0x10(%rbx)
  4026df:	48 b8 74 61 69 6e 73 	movabs $0x6e6120736e696174,%rax
  4026e6:	20 61 6e 
  4026e9:	48 89 43 18          	mov    %rax,0x18(%rbx)
  4026ed:	48 b8 20 69 6c 6c 65 	movabs $0x6c6167656c6c6920,%rax
  4026f4:	67 61 6c 
  4026f7:	48 89 43 20          	mov    %rax,0x20(%rbx)
  4026fb:	48 b8 20 6f 72 20 75 	movabs $0x72706e7520726f20,%rax
  402702:	6e 70 72 
  402705:	48 89 43 28          	mov    %rax,0x28(%rbx)
  402709:	48 b8 69 6e 74 61 62 	movabs $0x20656c6261746e69,%rax
  402710:	6c 65 20 
  402713:	48 89 43 30          	mov    %rax,0x30(%rbx)
  402717:	48 b8 63 68 61 72 61 	movabs $0x6574636172616863,%rax
  40271e:	63 74 65 
  402721:	48 89 43 38          	mov    %rax,0x38(%rbx)
  402725:	66 c7 43 40 72 2e    	movw   $0x2e72,0x40(%rbx)
  40272b:	c6 43 42 00          	movb   $0x0,0x42(%rbx)
  40272f:	89 ef                	mov    %ebp,%edi
  402731:	e8 5a e5 ff ff       	callq  400c90 <close@plt>
  402736:	b8 ff ff ff ff       	mov    $0xffffffff,%eax
  40273b:	e9 5c 01 00 00       	jmpq   40289c <submitr+0x587>
  402740:	48 b8 45 72 72 6f 72 	movabs $0x43203a726f727245,%rax
  402747:	3a 20 43 
  40274a:	48 89 03             	mov    %rax,(%rbx)
  40274d:	48 b8 6c 69 65 6e 74 	movabs $0x6e7520746e65696c,%rax
  402754:	20 75 6e 
  402757:	48 89 43 08          	mov    %rax,0x8(%rbx)
  40275b:	48 b8 61 62 6c 65 20 	movabs $0x206f7420656c6261,%rax
  402762:	74 6f 20 
  402765:	48 89 43 10          	mov    %rax,0x10(%rbx)
  402769:	48 b8 77 72 69 74 65 	movabs $0x6f74206574697277,%rax
  402770:	20 74 6f 
  402773:	48 89 43 18          	mov    %rax,0x18(%rbx)
  402777:	48 b8 20 74 68 65 20 	movabs $0x7365722065687420,%rax
  40277e:	72 65 73 
  402781:	48 89 43 20          	mov    %rax,0x20(%rbx)
  402785:	48 b8 75 6c 74 20 73 	movabs $0x7672657320746c75,%rax
  40278c:	65 72 76 
  40278f:	48 89 43 28          	mov    %rax,0x28(%rbx)
  402793:	66 c7 43 30 65 72    	movw   $0x7265,0x30(%rbx)
  402799:	c6 43 32 00          	movb   $0x0,0x32(%rbx)
  40279d:	89 ef                	mov    %ebp,%edi
  40279f:	e8 ec e4 ff ff       	callq  400c90 <close@plt>
  4027a4:	b8 ff ff ff ff       	mov    $0xffffffff,%eax
  4027a9:	e9 ee 00 00 00       	jmpq   40289c <submitr+0x587>
  4027ae:	48 b8 45 72 72 6f 72 	movabs $0x43203a726f727245,%rax
  4027b5:	3a 20 43 
  4027b8:	48 89 03             	mov    %rax,(%rbx)
  4027bb:	48 b8 6c 69 65 6e 74 	movabs $0x6e7520746e65696c,%rax
  4027c2:	20 75 6e 
  4027c5:	48 89 43 08          	mov    %rax,0x8(%rbx)
  4027c9:	48 b8 61 62 6c 65 20 	movabs $0x206f7420656c6261,%rax
  4027d0:	74 6f 20 
  4027d3:	48 89 43 10          	mov    %rax,0x10(%rbx)
  4027d7:	48 b8 72 65 61 64 20 	movabs $0x7269662064616572,%rax
  4027de:	66 69 72 
  4027e1:	48 89 43 18          	mov    %rax,0x18(%rbx)
  4027e5:	48 b8 73 74 20 68 65 	movabs $0x6564616568207473,%rax
  4027ec:	61 64 65 
  4027ef:	48 89 43 20          	mov    %rax,0x20(%rbx)
  4027f3:	48 b8 72 20 66 72 6f 	movabs $0x72206d6f72662072,%rax
  4027fa:	6d 20 72 
  4027fd:	48 89 43 28          	mov    %rax,0x28(%rbx)
  402801:	48 b8 65 73 75 6c 74 	movabs $0x657320746c757365,%rax
  402808:	20 73 65 
  40280b:	48 89 43 30          	mov    %rax,0x30(%rbx)
  40280f:	c7 43 38 72 76 65 72 	movl   $0x72657672,0x38(%rbx)
  402816:	c6 43 3c 00          	movb   $0x0,0x3c(%rbx)
  40281a:	89 ef                	mov    %ebp,%edi
  40281c:	e8 6f e4 ff ff       	callq  400c90 <close@plt>
  402821:	b8 ff ff ff ff       	mov    $0xffffffff,%eax
  402826:	eb 74                	jmp    40289c <submitr+0x587>
  402828:	48 b8 45 72 72 6f 72 	movabs $0x43203a726f727245,%rax
  40282f:	3a 20 43 
  402832:	48 89 03             	mov    %rax,(%rbx)
  402835:	48 b8 6c 69 65 6e 74 	movabs $0x6e7520746e65696c,%rax
  40283c:	20 75 6e 
  40283f:	48 89 43 08          	mov    %rax,0x8(%rbx)
  402843:	48 b8 61 62 6c 65 20 	movabs $0x206f7420656c6261,%rax
  40284a:	74 6f 20 
  40284d:	48 89 43 10          	mov    %rax,0x10(%rbx)
  402851:	48 b8 72 65 61 64 20 	movabs $0x6165682064616572,%rax
  402858:	68 65 61 
  40285b:	48 89 43 18          	mov    %rax,0x18(%rbx)
  40285f:	48 b8 64 65 72 73 20 	movabs $0x6f72662073726564,%rax
  402866:	66 72 6f 
  402869:	48 89 43 20          	mov    %rax,0x20(%rbx)
  40286d:	48 b8 6d 20 74 68 65 	movabs $0x657220656874206d,%rax
  402874:	20 72 65 
  402877:	48 89 43 28          	mov    %rax,0x28(%rbx)
  40287b:	48 b8 73 75 6c 74 20 	movabs $0x72657320746c7573,%rax
  402882:	73 65 72 
  402885:	48 89 43 30          	mov    %rax,0x30(%rbx)
  402889:	c7 43 38 76 65 72 00 	movl   $0x726576,0x38(%rbx)
  402890:	89 ef                	mov    %ebp,%edi
  402892:	e8 f9 e3 ff ff       	callq  400c90 <close@plt>
  402897:	b8 ff ff ff ff       	mov    $0xffffffff,%eax
  40289c:	48 81 c4 58 a0 00 00 	add    $0xa058,%rsp
  4028a3:	5b                   	pop    %rbx
  4028a4:	5d                   	pop    %rbp
  4028a5:	41 5c                	pop    %r12
  4028a7:	41 5d                	pop    %r13
  4028a9:	41 5e                	pop    %r14
  4028ab:	41 5f                	pop    %r15
  4028ad:	c3                   	retq   
  4028ae:	85 c0                	test   %eax,%eax
  4028b0:	74 51                	je     402903 <submitr+0x5ee>
  4028b2:	48 8d b4 24 30 60 00 	lea    0x6030(%rsp),%rsi
  4028b9:	00 
  4028ba:	48 8d bc 24 30 80 00 	lea    0x8030(%rsp),%rdi
  4028c1:	00 
  4028c2:	ba 00 20 00 00       	mov    $0x2000,%edx
  4028c7:	e8 ca f9 ff ff       	callq  402296 <rio_readlineb>
  4028cc:	48 85 c0             	test   %rax,%rax
  4028cf:	0f 8e 53 ff ff ff    	jle    402828 <submitr+0x513>
  4028d5:	0f b6 94 24 30 60 00 	movzbl 0x6030(%rsp),%edx
  4028dc:	00 
  4028dd:	b8 0d 00 00 00       	mov    $0xd,%eax
  4028e2:	29 d0                	sub    %edx,%eax
  4028e4:	75 c8                	jne    4028ae <submitr+0x599>
  4028e6:	0f b6 94 24 31 60 00 	movzbl 0x6031(%rsp),%edx
  4028ed:	00 
  4028ee:	b8 0a 00 00 00       	mov    $0xa,%eax
  4028f3:	29 d0                	sub    %edx,%eax
  4028f5:	75 b7                	jne    4028ae <submitr+0x599>
  4028f7:	0f b6 84 24 32 60 00 	movzbl 0x6032(%rsp),%eax
  4028fe:	00 
  4028ff:	f7 d8                	neg    %eax
  402901:	eb ab                	jmp    4028ae <submitr+0x599>
  402903:	48 8d b4 24 30 60 00 	lea    0x6030(%rsp),%rsi
  40290a:	00 
  40290b:	48 8d bc 24 30 80 00 	lea    0x8030(%rsp),%rdi
  402912:	00 
  402913:	ba 00 20 00 00       	mov    $0x2000,%edx
  402918:	e8 79 f9 ff ff       	callq  402296 <rio_readlineb>
  40291d:	48 85 c0             	test   %rax,%rax
  402920:	7e 67                	jle    402989 <submitr+0x674>
  402922:	8b 94 24 2c 20 00 00 	mov    0x202c(%rsp),%edx
  402929:	81 fa c8 00 00 00    	cmp    $0xc8,%edx
  40292f:	0f 85 d7 00 00 00    	jne    402a0c <submitr+0x6f7>
  402935:	48 8d b4 24 30 60 00 	lea    0x6030(%rsp),%rsi
  40293c:	00 
  40293d:	48 89 df             	mov    %rbx,%rdi
  402940:	e8 db e2 ff ff       	callq  400c20 <strcpy@plt>
  402945:	89 ef                	mov    %ebp,%edi
  402947:	e8 44 e3 ff ff       	callq  400c90 <close@plt>
  40294c:	0f b6 03             	movzbl (%rbx),%eax
  40294f:	ba 4f 00 00 00       	mov    $0x4f,%edx
  402954:	29 c2                	sub    %eax,%edx
  402956:	0f 85 da 00 00 00    	jne    402a36 <submitr+0x721>
  40295c:	0f b6 4b 01          	movzbl 0x1(%rbx),%ecx
  402960:	b8 4b 00 00 00       	mov    $0x4b,%eax
  402965:	29 c8                	sub    %ecx,%eax
  402967:	0f 85 cb 00 00 00    	jne    402a38 <submitr+0x723>
  40296d:	0f b6 4b 02          	movzbl 0x2(%rbx),%ecx
  402971:	b8 0a 00 00 00       	mov    $0xa,%eax
  402976:	29 c8                	sub    %ecx,%eax
  402978:	0f 85 ba 00 00 00    	jne    402a38 <submitr+0x723>
  40297e:	0f b6 43 03          	movzbl 0x3(%rbx),%eax
  402982:	f7 d8                	neg    %eax
  402984:	e9 af 00 00 00       	jmpq   402a38 <submitr+0x723>
  402989:	48 b8 45 72 72 6f 72 	movabs $0x43203a726f727245,%rax
  402990:	3a 20 43 
  402993:	48 89 03             	mov    %rax,(%rbx)
  402996:	48 b8 6c 69 65 6e 74 	movabs $0x6e7520746e65696c,%rax
  40299d:	20 75 6e 
  4029a0:	48 89 43 08          	mov    %rax,0x8(%rbx)
  4029a4:	48 b8 61 62 6c 65 20 	movabs $0x206f7420656c6261,%rax
  4029ab:	74 6f 20 
  4029ae:	48 89 43 10          	mov    %rax,0x10(%rbx)
  4029b2:	48 b8 72 65 61 64 20 	movabs $0x6174732064616572,%rax
  4029b9:	73 74 61 
  4029bc:	48 89 43 18          	mov    %rax,0x18(%rbx)
  4029c0:	48 b8 74 75 73 20 6d 	movabs $0x7373656d20737574,%rax
  4029c7:	65 73 73 
  4029ca:	48 89 43 20          	mov    %rax,0x20(%rbx)
  4029ce:	48 b8 61 67 65 20 66 	movabs $0x6d6f726620656761,%rax
  4029d5:	72 6f 6d 
  4029d8:	48 89 43 28          	mov    %rax,0x28(%rbx)
  4029dc:	48 b8 20 72 65 73 75 	movabs $0x20746c7573657220,%rax
  4029e3:	6c 74 20 
  4029e6:	48 89 43 30          	mov    %rax,0x30(%rbx)
  4029ea:	c7 43 38 73 65 72 76 	movl   $0x76726573,0x38(%rbx)
  4029f1:	66 c7 43 3c 65 72    	movw   $0x7265,0x3c(%rbx)
  4029f7:	c6 43 3e 00          	movb   $0x0,0x3e(%rbx)
  4029fb:	89 ef                	mov    %ebp,%edi
  4029fd:	e8 8e e2 ff ff       	callq  400c90 <close@plt>
  402a02:	b8 ff ff ff ff       	mov    $0xffffffff,%eax
  402a07:	e9 90 fe ff ff       	jmpq   40289c <submitr+0x587>
  402a0c:	48 8d 4c 24 20       	lea    0x20(%rsp),%rcx
  402a11:	48 8d 35 f0 0a 00 00 	lea    0xaf0(%rip),%rsi        # 403508 <trans_char+0x78>
  402a18:	48 89 df             	mov    %rbx,%rdi
  402a1b:	b8 00 00 00 00       	mov    $0x0,%eax
  402a20:	e8 7b e3 ff ff       	callq  400da0 <sprintf@plt>
  402a25:	89 ef                	mov    %ebp,%edi
  402a27:	e8 64 e2 ff ff       	callq  400c90 <close@plt>
  402a2c:	b8 ff ff ff ff       	mov    $0xffffffff,%eax
  402a31:	e9 66 fe ff ff       	jmpq   40289c <submitr+0x587>
  402a36:	89 d0                	mov    %edx,%eax
  402a38:	f7 d8                	neg    %eax
  402a3a:	0f 84 5c fe ff ff    	je     40289c <submitr+0x587>
  402a40:	b9 05 00 00 00       	mov    $0x5,%ecx
  402a45:	48 8d 3d 04 0b 00 00 	lea    0xb04(%rip),%rdi        # 403550 <trans_char+0xc0>
  402a4c:	48 89 de             	mov    %rbx,%rsi
  402a4f:	f3 a6                	repz cmpsb %es:(%rdi),%ds:(%rsi)
  402a51:	0f 97 c0             	seta   %al
  402a54:	0f 92 c1             	setb   %cl
  402a57:	29 c8                	sub    %ecx,%eax
  402a59:	0f be c0             	movsbl %al,%eax
  402a5c:	85 c0                	test   %eax,%eax
  402a5e:	0f 84 38 fe ff ff    	je     40289c <submitr+0x587>
  402a64:	85 d2                	test   %edx,%edx
  402a66:	75 13                	jne    402a7b <submitr+0x766>
  402a68:	0f b6 43 01          	movzbl 0x1(%rbx),%eax
  402a6c:	ba 4b 00 00 00       	mov    $0x4b,%edx
  402a71:	29 c2                	sub    %eax,%edx
  402a73:	75 06                	jne    402a7b <submitr+0x766>
  402a75:	0f b6 53 02          	movzbl 0x2(%rbx),%edx
  402a79:	f7 da                	neg    %edx
  402a7b:	89 d0                	mov    %edx,%eax
  402a7d:	f7 d8                	neg    %eax
  402a7f:	0f 84 17 fe ff ff    	je     40289c <submitr+0x587>
  402a85:	b8 ff ff ff ff       	mov    $0xffffffff,%eax
  402a8a:	e9 0d fe ff ff       	jmpq   40289c <submitr+0x587>

0000000000402a8f <init_timeout>:
  402a8f:	85 ff                	test   %edi,%edi
  402a91:	74 20                	je     402ab3 <init_timeout+0x24>
  402a93:	53                   	push   %rbx
  402a94:	89 fb                	mov    %edi,%ebx
  402a96:	85 ff                	test   %edi,%edi
  402a98:	78 1b                	js     402ab5 <init_timeout+0x26>
  402a9a:	48 8d 35 05 f6 ff ff 	lea    -0x9fb(%rip),%rsi        # 4020a6 <sigalrm_handler>
  402aa1:	bf 0e 00 00 00       	mov    $0xe,%edi
  402aa6:	e8 05 e2 ff ff       	callq  400cb0 <signal@plt>
  402aab:	89 df                	mov    %ebx,%edi
  402aad:	e8 ce e1 ff ff       	callq  400c80 <alarm@plt>
  402ab2:	5b                   	pop    %rbx
  402ab3:	f3 c3                	repz retq 
  402ab5:	bb 00 00 00 00       	mov    $0x0,%ebx
  402aba:	eb de                	jmp    402a9a <init_timeout+0xb>

0000000000402abc <init_driver>:
  402abc:	41 54                	push   %r12
  402abe:	55                   	push   %rbp
  402abf:	53                   	push   %rbx
  402ac0:	48 83 ec 10          	sub    $0x10,%rsp
  402ac4:	48 89 fd             	mov    %rdi,%rbp
  402ac7:	be 01 00 00 00       	mov    $0x1,%esi
  402acc:	bf 0d 00 00 00       	mov    $0xd,%edi
  402ad1:	e8 da e1 ff ff       	callq  400cb0 <signal@plt>
  402ad6:	be 01 00 00 00       	mov    $0x1,%esi
  402adb:	bf 1d 00 00 00       	mov    $0x1d,%edi
  402ae0:	e8 cb e1 ff ff       	callq  400cb0 <signal@plt>
  402ae5:	be 01 00 00 00       	mov    $0x1,%esi
  402aea:	bf 1d 00 00 00       	mov    $0x1d,%edi
  402aef:	e8 bc e1 ff ff       	callq  400cb0 <signal@plt>
  402af4:	ba 00 00 00 00       	mov    $0x0,%edx
  402af9:	be 01 00 00 00       	mov    $0x1,%esi
  402afe:	bf 02 00 00 00       	mov    $0x2,%edi
  402b03:	e8 c8 e2 ff ff       	callq  400dd0 <socket@plt>
  402b08:	85 c0                	test   %eax,%eax
  402b0a:	0f 88 80 00 00 00    	js     402b90 <init_driver+0xd4>
  402b10:	89 c3                	mov    %eax,%ebx
  402b12:	48 8d 3d 3c 0a 00 00 	lea    0xa3c(%rip),%rdi        # 403555 <trans_char+0xc5>
  402b19:	e8 a2 e1 ff ff       	callq  400cc0 <gethostbyname@plt>
  402b1e:	48 85 c0             	test   %rax,%rax
  402b21:	0f 84 b5 00 00 00    	je     402bdc <init_driver+0x120>
  402b27:	48 c7 04 24 00 00 00 	movq   $0x0,(%rsp)
  402b2e:	00 
  402b2f:	48 c7 44 24 08 00 00 	movq   $0x0,0x8(%rsp)
  402b36:	00 00 
  402b38:	66 c7 04 24 02 00    	movw   $0x2,(%rsp)
  402b3e:	48 8b 48 18          	mov    0x18(%rax),%rcx
  402b42:	48 63 50 14          	movslq 0x14(%rax),%rdx
  402b46:	48 8d 74 24 04       	lea    0x4(%rsp),%rsi
  402b4b:	48 8b 39             	mov    (%rcx),%rdi
  402b4e:	e8 fd e1 ff ff       	callq  400d50 <bcopy@plt>
  402b53:	66 c7 44 24 02 3c a4 	movw   $0xa43c,0x2(%rsp)
  402b5a:	ba 10 00 00 00       	mov    $0x10,%edx
  402b5f:	48 89 e6             	mov    %rsp,%rsi
  402b62:	89 df                	mov    %ebx,%edi
  402b64:	e8 57 e2 ff ff       	callq  400dc0 <connect@plt>
  402b69:	85 c0                	test   %eax,%eax
  402b6b:	0f 88 d3 00 00 00    	js     402c44 <init_driver+0x188>
  402b71:	89 df                	mov    %ebx,%edi
  402b73:	e8 18 e1 ff ff       	callq  400c90 <close@plt>
  402b78:	66 c7 45 00 4f 4b    	movw   $0x4b4f,0x0(%rbp)
  402b7e:	c6 45 02 00          	movb   $0x0,0x2(%rbp)
  402b82:	b8 00 00 00 00       	mov    $0x0,%eax
  402b87:	48 83 c4 10          	add    $0x10,%rsp
  402b8b:	5b                   	pop    %rbx
  402b8c:	5d                   	pop    %rbp
  402b8d:	41 5c                	pop    %r12
  402b8f:	c3                   	retq   
  402b90:	48 b8 45 72 72 6f 72 	movabs $0x43203a726f727245,%rax
  402b97:	3a 20 43 
  402b9a:	48 89 45 00          	mov    %rax,0x0(%rbp)
  402b9e:	48 b8 6c 69 65 6e 74 	movabs $0x6e7520746e65696c,%rax
  402ba5:	20 75 6e 
  402ba8:	48 89 45 08          	mov    %rax,0x8(%rbp)
  402bac:	48 b8 61 62 6c 65 20 	movabs $0x206f7420656c6261,%rax
  402bb3:	74 6f 20 
  402bb6:	48 89 45 10          	mov    %rax,0x10(%rbp)
  402bba:	48 b8 63 72 65 61 74 	movabs $0x7320657461657263,%rax
  402bc1:	65 20 73 
  402bc4:	48 89 45 18          	mov    %rax,0x18(%rbp)
  402bc8:	c7 45 20 6f 63 6b 65 	movl   $0x656b636f,0x20(%rbp)
  402bcf:	66 c7 45 24 74 00    	movw   $0x74,0x24(%rbp)
  402bd5:	b8 ff ff ff ff       	mov    $0xffffffff,%eax
  402bda:	eb ab                	jmp    402b87 <init_driver+0xcb>
  402bdc:	48 b8 45 72 72 6f 72 	movabs $0x44203a726f727245,%rax
  402be3:	3a 20 44 
  402be6:	48 89 45 00          	mov    %rax,0x0(%rbp)
  402bea:	48 b8 4e 53 20 69 73 	movabs $0x6e7520736920534e,%rax
  402bf1:	20 75 6e 
  402bf4:	48 89 45 08          	mov    %rax,0x8(%rbp)
  402bf8:	48 b8 61 62 6c 65 20 	movabs $0x206f7420656c6261,%rax
  402bff:	74 6f 20 
  402c02:	48 89 45 10          	mov    %rax,0x10(%rbp)
  402c06:	48 b8 72 65 73 6f 6c 	movabs $0x2065766c6f736572,%rax
  402c0d:	76 65 20 
  402c10:	48 89 45 18          	mov    %rax,0x18(%rbp)
  402c14:	48 b8 73 65 72 76 65 	movabs $0x6120726576726573,%rax
  402c1b:	72 20 61 
  402c1e:	48 89 45 20          	mov    %rax,0x20(%rbp)
  402c22:	c7 45 28 64 64 72 65 	movl   $0x65726464,0x28(%rbp)
  402c29:	66 c7 45 2c 73 73    	movw   $0x7373,0x2c(%rbp)
  402c2f:	c6 45 2e 00          	movb   $0x0,0x2e(%rbp)
  402c33:	89 df                	mov    %ebx,%edi
  402c35:	e8 56 e0 ff ff       	callq  400c90 <close@plt>
  402c3a:	b8 ff ff ff ff       	mov    $0xffffffff,%eax
  402c3f:	e9 43 ff ff ff       	jmpq   402b87 <init_driver+0xcb>
  402c44:	48 b8 45 72 72 6f 72 	movabs $0x55203a726f727245,%rax
  402c4b:	3a 20 55 
  402c4e:	48 89 45 00          	mov    %rax,0x0(%rbp)
  402c52:	48 b8 6e 61 62 6c 65 	movabs $0x6f7420656c62616e,%rax
  402c59:	20 74 6f 
  402c5c:	48 89 45 08          	mov    %rax,0x8(%rbp)
  402c60:	48 b8 20 63 6f 6e 6e 	movabs $0x7463656e6e6f6320,%rax
  402c67:	65 63 74 
  402c6a:	48 89 45 10          	mov    %rax,0x10(%rbp)
  402c6e:	48 b8 20 74 6f 20 73 	movabs $0x76726573206f7420,%rax
  402c75:	65 72 76 
  402c78:	48 89 45 18          	mov    %rax,0x18(%rbp)
  402c7c:	66 c7 45 20 65 72    	movw   $0x7265,0x20(%rbp)
  402c82:	c6 45 22 00          	movb   $0x0,0x22(%rbp)
  402c86:	89 df                	mov    %ebx,%edi
  402c88:	e8 03 e0 ff ff       	callq  400c90 <close@plt>
  402c8d:	b8 ff ff ff ff       	mov    $0xffffffff,%eax
  402c92:	e9 f0 fe ff ff       	jmpq   402b87 <init_driver+0xcb>

0000000000402c97 <driver_post>:
  402c97:	53                   	push   %rbx
  402c98:	4c 89 cb             	mov    %r9,%rbx
  402c9b:	45 85 c0             	test   %r8d,%r8d
  402c9e:	75 18                	jne    402cb8 <driver_post+0x21>
  402ca0:	48 85 ff             	test   %rdi,%rdi
  402ca3:	74 05                	je     402caa <driver_post+0x13>
  402ca5:	80 3f 00             	cmpb   $0x0,(%rdi)
  402ca8:	75 32                	jne    402cdc <driver_post+0x45>
  402caa:	66 c7 03 4f 4b       	movw   $0x4b4f,(%rbx)
  402caf:	c6 43 02 00          	movb   $0x0,0x2(%rbx)
  402cb3:	44 89 c0             	mov    %r8d,%eax
  402cb6:	5b                   	pop    %rbx
  402cb7:	c3                   	retq   
  402cb8:	48 89 ce             	mov    %rcx,%rsi
  402cbb:	48 8d 3d a1 08 00 00 	lea    0x8a1(%rip),%rdi        # 403563 <trans_char+0xd3>
  402cc2:	b8 00 00 00 00       	mov    $0x0,%eax
  402cc7:	e8 94 df ff ff       	callq  400c60 <printf@plt>
  402ccc:	66 c7 03 4f 4b       	movw   $0x4b4f,(%rbx)
  402cd1:	c6 43 02 00          	movb   $0x0,0x2(%rbx)
  402cd5:	b8 00 00 00 00       	mov    $0x0,%eax
  402cda:	eb da                	jmp    402cb6 <driver_post+0x1f>
  402cdc:	48 83 ec 08          	sub    $0x8,%rsp
  402ce0:	41 51                	push   %r9
  402ce2:	49 89 c9             	mov    %rcx,%r9
  402ce5:	49 89 d0             	mov    %rdx,%r8
  402ce8:	48 89 f9             	mov    %rdi,%rcx
  402ceb:	48 89 f2             	mov    %rsi,%rdx
  402cee:	be a4 3c 00 00       	mov    $0x3ca4,%esi
  402cf3:	48 8d 3d 5b 08 00 00 	lea    0x85b(%rip),%rdi        # 403555 <trans_char+0xc5>
  402cfa:	e8 16 f6 ff ff       	callq  402315 <submitr>
  402cff:	48 83 c4 10          	add    $0x10,%rsp
  402d03:	eb b1                	jmp    402cb6 <driver_post+0x1f>

0000000000402d05 <check>:
  402d05:	89 f8                	mov    %edi,%eax
  402d07:	c1 e8 1c             	shr    $0x1c,%eax
  402d0a:	85 c0                	test   %eax,%eax
  402d0c:	74 1d                	je     402d2b <check+0x26>
  402d0e:	b9 00 00 00 00       	mov    $0x0,%ecx
  402d13:	83 f9 1f             	cmp    $0x1f,%ecx
  402d16:	7f 0d                	jg     402d25 <check+0x20>
  402d18:	89 f8                	mov    %edi,%eax
  402d1a:	d3 e8                	shr    %cl,%eax
  402d1c:	3c 0a                	cmp    $0xa,%al
  402d1e:	74 11                	je     402d31 <check+0x2c>
  402d20:	83 c1 08             	add    $0x8,%ecx
  402d23:	eb ee                	jmp    402d13 <check+0xe>
  402d25:	b8 01 00 00 00       	mov    $0x1,%eax
  402d2a:	c3                   	retq   
  402d2b:	b8 00 00 00 00       	mov    $0x0,%eax
  402d30:	c3                   	retq   
  402d31:	b8 00 00 00 00       	mov    $0x0,%eax
  402d36:	c3                   	retq   

0000000000402d37 <gencookie>:
  402d37:	53                   	push   %rbx
  402d38:	83 c7 01             	add    $0x1,%edi
  402d3b:	e8 c0 de ff ff       	callq  400c00 <srandom@plt>
  402d40:	e8 cb df ff ff       	callq  400d10 <random@plt>
  402d45:	89 c3                	mov    %eax,%ebx
  402d47:	89 c7                	mov    %eax,%edi
  402d49:	e8 b7 ff ff ff       	callq  402d05 <check>
  402d4e:	85 c0                	test   %eax,%eax
  402d50:	74 ee                	je     402d40 <gencookie+0x9>
  402d52:	89 d8                	mov    %ebx,%eax
  402d54:	5b                   	pop    %rbx
  402d55:	c3                   	retq   
  402d56:	66 2e 0f 1f 84 00 00 	nopw   %cs:0x0(%rax,%rax,1)
  402d5d:	00 00 00 

0000000000402d60 <__libc_csu_init>:
  402d60:	41 57                	push   %r15
  402d62:	41 56                	push   %r14
  402d64:	41 89 ff             	mov    %edi,%r15d
  402d67:	41 55                	push   %r13
  402d69:	41 54                	push   %r12
  402d6b:	4c 8d 25 96 20 20 00 	lea    0x202096(%rip),%r12        # 604e08 <__frame_dummy_init_array_entry>
  402d72:	55                   	push   %rbp
  402d73:	48 8d 2d 96 20 20 00 	lea    0x202096(%rip),%rbp        # 604e10 <__init_array_end>
  402d7a:	53                   	push   %rbx
  402d7b:	49 89 f6             	mov    %rsi,%r14
  402d7e:	49 89 d5             	mov    %rdx,%r13
  402d81:	4c 29 e5             	sub    %r12,%rbp
  402d84:	48 83 ec 08          	sub    $0x8,%rsp
  402d88:	48 c1 fd 03          	sar    $0x3,%rbp
  402d8c:	e8 1f de ff ff       	callq  400bb0 <_init>
  402d91:	48 85 ed             	test   %rbp,%rbp
  402d94:	74 20                	je     402db6 <__libc_csu_init+0x56>
  402d96:	31 db                	xor    %ebx,%ebx
  402d98:	0f 1f 84 00 00 00 00 	nopl   0x0(%rax,%rax,1)
  402d9f:	00 
  402da0:	4c 89 ea             	mov    %r13,%rdx
  402da3:	4c 89 f6             	mov    %r14,%rsi
  402da6:	44 89 ff             	mov    %r15d,%edi
  402da9:	41 ff 14 dc          	callq  *(%r12,%rbx,8)
  402dad:	48 83 c3 01          	add    $0x1,%rbx
  402db1:	48 39 dd             	cmp    %rbx,%rbp
  402db4:	75 ea                	jne    402da0 <__libc_csu_init+0x40>
  402db6:	48 83 c4 08          	add    $0x8,%rsp
  402dba:	5b                   	pop    %rbx
  402dbb:	5d                   	pop    %rbp
  402dbc:	41 5c                	pop    %r12
  402dbe:	41 5d                	pop    %r13
  402dc0:	41 5e                	pop    %r14
  402dc2:	41 5f                	pop    %r15
  402dc4:	c3                   	retq   
  402dc5:	90                   	nop
  402dc6:	66 2e 0f 1f 84 00 00 	nopw   %cs:0x0(%rax,%rax,1)
  402dcd:	00 00 00 

0000000000402dd0 <__libc_csu_fini>:
  402dd0:	f3 c3                	repz retq 

Disassembly of section .fini:

0000000000402dd4 <_fini>:
  402dd4:	48 83 ec 08          	sub    $0x8,%rsp
  402dd8:	48 83 c4 08          	add    $0x8,%rsp
  402ddc:	c3                   	retq   
