
bomb：     文件格式 elf64-x86-64


Disassembly of section .init:

0000000000000e98 <_init>:
 e98:	48 83 ec 08          	sub    $0x8,%rsp
 e9c:	48 8b 05 3d 21 20 00 	mov    0x20213d(%rip),%rax        # 202fe0 <__gmon_start__>
 ea3:	48 85 c0             	test   %rax,%rax
 ea6:	74 02                	je     eaa <_init+0x12>
 ea8:	ff d0                	callq  *%rax
 eaa:	48 83 c4 08          	add    $0x8,%rsp
 eae:	c3                   	retq   

Disassembly of section .plt:

0000000000000eb0 <.plt>:
     eb0:	ff 35 52 21 20 00    	pushq  0x202152(%rip)        # 203008 <_GLOBAL_OFFSET_TABLE_+0x8>
     eb6:	ff 25 54 21 20 00    	jmpq   *0x202154(%rip)        # 203010 <_GLOBAL_OFFSET_TABLE_+0x10>
     ebc:	0f 1f 40 00          	nopl   0x0(%rax)

0000000000000ec0 <getenv@plt>:
     ec0:	ff 25 52 21 20 00    	jmpq   *0x202152(%rip)        # 203018 <getenv@GLIBC_2.2.5>
     ec6:	68 00 00 00 00       	pushq  $0x0
     ecb:	e9 e0 ff ff ff       	jmpq   eb0 <.plt>

0000000000000ed0 <__errno_location@plt>:
     ed0:	ff 25 4a 21 20 00    	jmpq   *0x20214a(%rip)        # 203020 <__errno_location@GLIBC_2.2.5>
     ed6:	68 01 00 00 00       	pushq  $0x1
     edb:	e9 d0 ff ff ff       	jmpq   eb0 <.plt>

0000000000000ee0 <strcpy@plt>:
     ee0:	ff 25 42 21 20 00    	jmpq   *0x202142(%rip)        # 203028 <strcpy@GLIBC_2.2.5>
     ee6:	68 02 00 00 00       	pushq  $0x2
     eeb:	e9 c0 ff ff ff       	jmpq   eb0 <.plt>

0000000000000ef0 <puts@plt>:
     ef0:	ff 25 3a 21 20 00    	jmpq   *0x20213a(%rip)        # 203030 <puts@GLIBC_2.2.5>
     ef6:	68 03 00 00 00       	pushq  $0x3
     efb:	e9 b0 ff ff ff       	jmpq   eb0 <.plt>

0000000000000f00 <write@plt>:
     f00:	ff 25 32 21 20 00    	jmpq   *0x202132(%rip)        # 203038 <write@GLIBC_2.2.5>
     f06:	68 04 00 00 00       	pushq  $0x4
     f0b:	e9 a0 ff ff ff       	jmpq   eb0 <.plt>

0000000000000f10 <fclose@plt>:
     f10:	ff 25 2a 21 20 00    	jmpq   *0x20212a(%rip)        # 203040 <fclose@GLIBC_2.2.5>
     f16:	68 05 00 00 00       	pushq  $0x5
     f1b:	e9 90 ff ff ff       	jmpq   eb0 <.plt>

0000000000000f20 <system@plt>:
     f20:	ff 25 22 21 20 00    	jmpq   *0x202122(%rip)        # 203048 <system@GLIBC_2.2.5>
     f26:	68 06 00 00 00       	pushq  $0x6
     f2b:	e9 80 ff ff ff       	jmpq   eb0 <.plt>

0000000000000f30 <printf@plt>:
     f30:	ff 25 1a 21 20 00    	jmpq   *0x20211a(%rip)        # 203050 <printf@GLIBC_2.2.5>
     f36:	68 07 00 00 00       	pushq  $0x7
     f3b:	e9 70 ff ff ff       	jmpq   eb0 <.plt>

0000000000000f40 <rewind@plt>:
     f40:	ff 25 12 21 20 00    	jmpq   *0x202112(%rip)        # 203058 <rewind@GLIBC_2.2.5>
     f46:	68 08 00 00 00       	pushq  $0x8
     f4b:	e9 60 ff ff ff       	jmpq   eb0 <.plt>

0000000000000f50 <dup@plt>:
     f50:	ff 25 0a 21 20 00    	jmpq   *0x20210a(%rip)        # 203060 <dup@GLIBC_2.2.5>
     f56:	68 09 00 00 00       	pushq  $0x9
     f5b:	e9 50 ff ff ff       	jmpq   eb0 <.plt>

0000000000000f60 <close@plt>:
     f60:	ff 25 02 21 20 00    	jmpq   *0x202102(%rip)        # 203068 <close@GLIBC_2.2.5>
     f66:	68 0a 00 00 00       	pushq  $0xa
     f6b:	e9 40 ff ff ff       	jmpq   eb0 <.plt>

0000000000000f70 <fputc@plt>:
     f70:	ff 25 fa 20 20 00    	jmpq   *0x2020fa(%rip)        # 203070 <fputc@GLIBC_2.2.5>
     f76:	68 0b 00 00 00       	pushq  $0xb
     f7b:	e9 30 ff ff ff       	jmpq   eb0 <.plt>

0000000000000f80 <fgets@plt>:
     f80:	ff 25 f2 20 20 00    	jmpq   *0x2020f2(%rip)        # 203078 <fgets@GLIBC_2.2.5>
     f86:	68 0c 00 00 00       	pushq  $0xc
     f8b:	e9 20 ff ff ff       	jmpq   eb0 <.plt>

0000000000000f90 <tmpfile@plt>:
     f90:	ff 25 ea 20 20 00    	jmpq   *0x2020ea(%rip)        # 203080 <tmpfile@GLIBC_2.2.5>
     f96:	68 0d 00 00 00       	pushq  $0xd
     f9b:	e9 10 ff ff ff       	jmpq   eb0 <.plt>

0000000000000fa0 <signal@plt>:
     fa0:	ff 25 e2 20 20 00    	jmpq   *0x2020e2(%rip)        # 203088 <signal@GLIBC_2.2.5>
     fa6:	68 0e 00 00 00       	pushq  $0xe
     fab:	e9 00 ff ff ff       	jmpq   eb0 <.plt>

0000000000000fb0 <gethostbyname@plt>:
     fb0:	ff 25 da 20 20 00    	jmpq   *0x2020da(%rip)        # 203090 <gethostbyname@GLIBC_2.2.5>
     fb6:	68 0f 00 00 00       	pushq  $0xf
     fbb:	e9 f0 fe ff ff       	jmpq   eb0 <.plt>

0000000000000fc0 <fprintf@plt>:
     fc0:	ff 25 d2 20 20 00    	jmpq   *0x2020d2(%rip)        # 203098 <fprintf@GLIBC_2.2.5>
     fc6:	68 10 00 00 00       	pushq  $0x10
     fcb:	e9 e0 fe ff ff       	jmpq   eb0 <.plt>

0000000000000fd0 <strtol@plt>:
     fd0:	ff 25 ca 20 20 00    	jmpq   *0x2020ca(%rip)        # 2030a0 <strtol@GLIBC_2.2.5>
     fd6:	68 11 00 00 00       	pushq  $0x11
     fdb:	e9 d0 fe ff ff       	jmpq   eb0 <.plt>

0000000000000fe0 <inet_pton@plt>:
     fe0:	ff 25 c2 20 20 00    	jmpq   *0x2020c2(%rip)        # 2030a8 <inet_pton@GLIBC_2.2.5>
     fe6:	68 12 00 00 00       	pushq  $0x12
     feb:	e9 c0 fe ff ff       	jmpq   eb0 <.plt>

0000000000000ff0 <fflush@plt>:
     ff0:	ff 25 ba 20 20 00    	jmpq   *0x2020ba(%rip)        # 2030b0 <fflush@GLIBC_2.2.5>
     ff6:	68 13 00 00 00       	pushq  $0x13
     ffb:	e9 b0 fe ff ff       	jmpq   eb0 <.plt>

0000000000001000 <__isoc99_sscanf@plt>:
    1000:	ff 25 b2 20 20 00    	jmpq   *0x2020b2(%rip)        # 2030b8 <__isoc99_sscanf@GLIBC_2.7>
    1006:	68 14 00 00 00       	pushq  $0x14
    100b:	e9 a0 fe ff ff       	jmpq   eb0 <.plt>

0000000000001010 <bcopy@plt>:
    1010:	ff 25 aa 20 20 00    	jmpq   *0x2020aa(%rip)        # 2030c0 <bcopy@GLIBC_2.2.5>
    1016:	68 15 00 00 00       	pushq  $0x15
    101b:	e9 90 fe ff ff       	jmpq   eb0 <.plt>

0000000000001020 <cuserid@plt>:
    1020:	ff 25 a2 20 20 00    	jmpq   *0x2020a2(%rip)        # 2030c8 <cuserid@GLIBC_2.2.5>
    1026:	68 16 00 00 00       	pushq  $0x16
    102b:	e9 80 fe ff ff       	jmpq   eb0 <.plt>

0000000000001030 <fopen@plt>:
    1030:	ff 25 9a 20 20 00    	jmpq   *0x20209a(%rip)        # 2030d0 <fopen@GLIBC_2.2.5>
    1036:	68 17 00 00 00       	pushq  $0x17
    103b:	e9 70 fe ff ff       	jmpq   eb0 <.plt>

0000000000001040 <strcat@plt>:
    1040:	ff 25 92 20 20 00    	jmpq   *0x202092(%rip)        # 2030d8 <strcat@GLIBC_2.2.5>
    1046:	68 18 00 00 00       	pushq  $0x18
    104b:	e9 60 fe ff ff       	jmpq   eb0 <.plt>

0000000000001050 <sprintf@plt>:
    1050:	ff 25 8a 20 20 00    	jmpq   *0x20208a(%rip)        # 2030e0 <sprintf@GLIBC_2.2.5>
    1056:	68 19 00 00 00       	pushq  $0x19
    105b:	e9 50 fe ff ff       	jmpq   eb0 <.plt>

0000000000001060 <exit@plt>:
    1060:	ff 25 82 20 20 00    	jmpq   *0x202082(%rip)        # 2030e8 <exit@GLIBC_2.2.5>
    1066:	68 1a 00 00 00       	pushq  $0x1a
    106b:	e9 40 fe ff ff       	jmpq   eb0 <.plt>

0000000000001070 <connect@plt>:
    1070:	ff 25 7a 20 20 00    	jmpq   *0x20207a(%rip)        # 2030f0 <connect@GLIBC_2.2.5>
    1076:	68 1b 00 00 00       	pushq  $0x1b
    107b:	e9 30 fe ff ff       	jmpq   eb0 <.plt>

0000000000001080 <fwrite@plt>:
    1080:	ff 25 72 20 20 00    	jmpq   *0x202072(%rip)        # 2030f8 <fwrite@GLIBC_2.2.5>
    1086:	68 1c 00 00 00       	pushq  $0x1c
    108b:	e9 20 fe ff ff       	jmpq   eb0 <.plt>

0000000000001090 <sleep@plt>:
    1090:	ff 25 6a 20 20 00    	jmpq   *0x20206a(%rip)        # 203100 <sleep@GLIBC_2.2.5>
    1096:	68 1d 00 00 00       	pushq  $0x1d
    109b:	e9 10 fe ff ff       	jmpq   eb0 <.plt>

00000000000010a0 <__ctype_b_loc@plt>:
    10a0:	ff 25 62 20 20 00    	jmpq   *0x202062(%rip)        # 203108 <__ctype_b_loc@GLIBC_2.3>
    10a6:	68 1e 00 00 00       	pushq  $0x1e
    10ab:	e9 00 fe ff ff       	jmpq   eb0 <.plt>

00000000000010b0 <socket@plt>:
    10b0:	ff 25 5a 20 20 00    	jmpq   *0x20205a(%rip)        # 203110 <socket@GLIBC_2.2.5>
    10b6:	68 1f 00 00 00       	pushq  $0x1f
    10bb:	e9 f0 fd ff ff       	jmpq   eb0 <.plt>

Disassembly of section .plt.got:

00000000000010c0 <__cxa_finalize@plt>:
    10c0:	ff 25 32 1f 20 00    	jmpq   *0x201f32(%rip)        # 202ff8 <__cxa_finalize@GLIBC_2.2.5>
    10c6:	66 90                	xchg   %ax,%ax

Disassembly of section .text:

00000000000010d0 <_start>:
    10d0:	31 ed                	xor    %ebp,%ebp
    10d2:	49 89 d1             	mov    %rdx,%r9
    10d5:	5e                   	pop    %rsi
    10d6:	48 89 e2             	mov    %rsp,%rdx
    10d9:	48 83 e4 f0          	and    $0xfffffffffffffff0,%rsp
    10dd:	50                   	push   %rax
    10de:	54                   	push   %rsp
    10df:	4c 8d 05 1a 11 00 00 	lea    0x111a(%rip),%r8        # 2200 <__libc_csu_fini>
    10e6:	48 8d 0d a3 10 00 00 	lea    0x10a3(%rip),%rcx        # 2190 <__libc_csu_init>
    10ed:	48 8d 3d 0c 01 00 00 	lea    0x10c(%rip),%rdi        # 1200 <main>
    10f4:	ff 15 de 1e 20 00    	callq  *0x201ede(%rip)        # 202fd8 <__libc_start_main@GLIBC_2.2.5>
    10fa:	f4                   	hlt    
    10fb:	0f 1f 44 00 00       	nopl   0x0(%rax,%rax,1)

0000000000001100 <deregister_tm_clones>:
    1100:	48 8d 3d 99 26 20 00 	lea    0x202699(%rip),%rdi        # 2037a0 <stdout@@GLIBC_2.2.5>
    1107:	48 8d 05 99 26 20 00 	lea    0x202699(%rip),%rax        # 2037a7 <__TMC_END__+0x7>
    110e:	55                   	push   %rbp
    110f:	48 29 f8             	sub    %rdi,%rax
    1112:	48 89 e5             	mov    %rsp,%rbp
    1115:	48 83 f8 0e          	cmp    $0xe,%rax
    1119:	76 15                	jbe    1130 <deregister_tm_clones+0x30>
    111b:	48 8b 05 ae 1e 20 00 	mov    0x201eae(%rip),%rax        # 202fd0 <_ITM_deregisterTMCloneTable>
    1122:	48 85 c0             	test   %rax,%rax
    1125:	74 09                	je     1130 <deregister_tm_clones+0x30>
    1127:	5d                   	pop    %rbp
    1128:	ff e0                	jmpq   *%rax
    112a:	66 0f 1f 44 00 00    	nopw   0x0(%rax,%rax,1)
    1130:	5d                   	pop    %rbp
    1131:	c3                   	retq   
    1132:	0f 1f 40 00          	nopl   0x0(%rax)
    1136:	66 2e 0f 1f 84 00 00 	nopw   %cs:0x0(%rax,%rax,1)
    113d:	00 00 00 

0000000000001140 <register_tm_clones>:
    1140:	48 8d 3d 59 26 20 00 	lea    0x202659(%rip),%rdi        # 2037a0 <stdout@@GLIBC_2.2.5>
    1147:	48 8d 35 52 26 20 00 	lea    0x202652(%rip),%rsi        # 2037a0 <stdout@@GLIBC_2.2.5>
    114e:	55                   	push   %rbp
    114f:	48 29 fe             	sub    %rdi,%rsi
    1152:	48 89 e5             	mov    %rsp,%rbp
    1155:	48 c1 fe 03          	sar    $0x3,%rsi
    1159:	48 89 f0             	mov    %rsi,%rax
    115c:	48 c1 e8 3f          	shr    $0x3f,%rax
    1160:	48 01 c6             	add    %rax,%rsi
    1163:	48 d1 fe             	sar    %rsi
    1166:	74 18                	je     1180 <register_tm_clones+0x40>
    1168:	48 8b 05 81 1e 20 00 	mov    0x201e81(%rip),%rax        # 202ff0 <_ITM_registerTMCloneTable>
    116f:	48 85 c0             	test   %rax,%rax
    1172:	74 0c                	je     1180 <register_tm_clones+0x40>
    1174:	5d                   	pop    %rbp
    1175:	ff e0                	jmpq   *%rax
    1177:	66 0f 1f 84 00 00 00 	nopw   0x0(%rax,%rax,1)
    117e:	00 00 
    1180:	5d                   	pop    %rbp
    1181:	c3                   	retq   
    1182:	0f 1f 40 00          	nopl   0x0(%rax)
    1186:	66 2e 0f 1f 84 00 00 	nopw   %cs:0x0(%rax,%rax,1)
    118d:	00 00 00 

0000000000001190 <__do_global_dtors_aux>:
    1190:	80 3d 21 26 20 00 00 	cmpb   $0x0,0x202621(%rip)        # 2037b8 <completed.6972>
    1197:	75 27                	jne    11c0 <__do_global_dtors_aux+0x30>
    1199:	48 83 3d 57 1e 20 00 	cmpq   $0x0,0x201e57(%rip)        # 202ff8 <__cxa_finalize@GLIBC_2.2.5>
    11a0:	00 
    11a1:	55                   	push   %rbp
    11a2:	48 89 e5             	mov    %rsp,%rbp
    11a5:	74 0c                	je     11b3 <__do_global_dtors_aux+0x23>
    11a7:	48 8b 3d 7a 1f 20 00 	mov    0x201f7a(%rip),%rdi        # 203128 <__dso_handle>
    11ae:	e8 0d ff ff ff       	callq  10c0 <__cxa_finalize@plt>
    11b3:	e8 48 ff ff ff       	callq  1100 <deregister_tm_clones>
    11b8:	5d                   	pop    %rbp
    11b9:	c6 05 f8 25 20 00 01 	movb   $0x1,0x2025f8(%rip)        # 2037b8 <completed.6972>
    11c0:	f3 c3                	repz retq 
    11c2:	0f 1f 40 00          	nopl   0x0(%rax)
    11c6:	66 2e 0f 1f 84 00 00 	nopw   %cs:0x0(%rax,%rax,1)
    11cd:	00 00 00 

00000000000011d0 <frame_dummy>:
    11d0:	48 8d 3d 11 1c 20 00 	lea    0x201c11(%rip),%rdi        # 202de8 <__JCR_END__>
    11d7:	48 83 3f 00          	cmpq   $0x0,(%rdi)
    11db:	75 0b                	jne    11e8 <frame_dummy+0x18>
    11dd:	e9 5e ff ff ff       	jmpq   1140 <register_tm_clones>
    11e2:	66 0f 1f 44 00 00    	nopw   0x0(%rax,%rax,1)
    11e8:	48 8b 05 f9 1d 20 00 	mov    0x201df9(%rip),%rax        # 202fe8 <_Jv_RegisterClasses>
    11ef:	48 85 c0             	test   %rax,%rax
    11f2:	74 e9                	je     11dd <frame_dummy+0xd>
    11f4:	55                   	push   %rbp
    11f5:	48 89 e5             	mov    %rsp,%rbp
    11f8:	ff d0                	callq  *%rax
    11fa:	5d                   	pop    %rbp
    11fb:	e9 40 ff ff ff       	jmpq   1140 <register_tm_clones>

0000000000001200 <main>:
    1200:	53                   	push   %rbx
    1201:	83 ff 01             	cmp    $0x1,%edi
    1204:	0f 84 f8 00 00 00    	je     1302 <main+0x102>
    120a:	48 89 f3             	mov    %rsi,%rbx
    120d:	83 ff 02             	cmp    $0x2,%edi
    1210:	0f 85 1c 01 00 00    	jne    1332 <main+0x132>
    1216:	48 8b 7e 08          	mov    0x8(%rsi),%rdi
    121a:	48 8d 35 39 14 00 00 	lea    0x1439(%rip),%rsi        # 265a <array.3088+0x25a>
    1221:	e8 0a fe ff ff       	callq  1030 <fopen@plt>
    1226:	48 89 05 93 25 20 00 	mov    %rax,0x202593(%rip)        # 2037c0 <infile>
    122d:	48 85 c0             	test   %rax,%rax
    1230:	0f 84 df 00 00 00    	je     1315 <main+0x115>
    1236:	e8 62 06 00 00       	callq  189d <initialize_bomb>
    123b:	48 8d 3d 66 10 00 00 	lea    0x1066(%rip),%rdi        # 22a8 <_IO_stdin_used+0x88>
    1242:	e8 a9 fc ff ff       	callq  ef0 <puts@plt>
    1247:	48 8d 3d 9a 10 00 00 	lea    0x109a(%rip),%rdi        # 22e8 <_IO_stdin_used+0xc8>
    124e:	e8 9d fc ff ff       	callq  ef0 <puts@plt>
    1253:	e8 a0 0d 00 00       	callq  1ff8 <read_line>
    1258:	48 89 c7             	mov    %rax,%rdi
    125b:	e8 f0 00 00 00       	callq  1350 <phase_1>
    1260:	e8 94 0e 00 00       	callq  20f9 <phase_defused>
    1265:	48 8d 3d ac 10 00 00 	lea    0x10ac(%rip),%rdi        # 2318 <_IO_stdin_used+0xf8>
    126c:	e8 7f fc ff ff       	callq  ef0 <puts@plt>
    1271:	e8 82 0d 00 00       	callq  1ff8 <read_line>
    1276:	48 89 c7             	mov    %rax,%rdi
    1279:	e8 f2 00 00 00       	callq  1370 <phase_2>
    127e:	e8 76 0e 00 00       	callq  20f9 <phase_defused>
    1283:	48 8d 3d d1 0f 00 00 	lea    0xfd1(%rip),%rdi        # 225b <_IO_stdin_used+0x3b>
    128a:	e8 61 fc ff ff       	callq  ef0 <puts@plt>
    128f:	e8 64 0d 00 00       	callq  1ff8 <read_line>
    1294:	48 89 c7             	mov    %rax,%rdi
    1297:	e8 0f 01 00 00       	callq  13ab <phase_3>
    129c:	e8 58 0e 00 00       	callq  20f9 <phase_defused>
    12a1:	48 8d 3d d1 0f 00 00 	lea    0xfd1(%rip),%rdi        # 2279 <_IO_stdin_used+0x59>
    12a8:	e8 43 fc ff ff       	callq  ef0 <puts@plt>
    12ad:	e8 46 0d 00 00       	callq  1ff8 <read_line>
    12b2:	48 89 c7             	mov    %rax,%rdi
    12b5:	e8 db 01 00 00       	callq  1495 <phase_4>
    12ba:	e8 3a 0e 00 00       	callq  20f9 <phase_defused>
    12bf:	48 8d 3d 82 10 00 00 	lea    0x1082(%rip),%rdi        # 2348 <_IO_stdin_used+0x128>
    12c6:	e8 25 fc ff ff       	callq  ef0 <puts@plt>
    12cb:	e8 28 0d 00 00       	callq  1ff8 <read_line>
    12d0:	48 89 c7             	mov    %rax,%rdi
    12d3:	e8 04 02 00 00       	callq  14dc <phase_5>
    12d8:	e8 1c 0e 00 00       	callq  20f9 <phase_defused>
    12dd:	48 8d 3d a4 0f 00 00 	lea    0xfa4(%rip),%rdi        # 2288 <_IO_stdin_used+0x68>
    12e4:	e8 07 fc ff ff       	callq  ef0 <puts@plt>
    12e9:	e8 0a 0d 00 00       	callq  1ff8 <read_line>
    12ee:	48 89 c7             	mov    %rax,%rdi
    12f1:	e8 5e 02 00 00       	callq  1554 <phase_6>
    12f6:	e8 fe 0d 00 00       	callq  20f9 <phase_defused>
    12fb:	b8 00 00 00 00       	mov    $0x0,%eax
    1300:	5b                   	pop    %rbx
    1301:	c3                   	retq   
    1302:	48 8b 05 a7 24 20 00 	mov    0x2024a7(%rip),%rax        # 2037b0 <stdin@@GLIBC_2.2.5>
    1309:	48 89 05 b0 24 20 00 	mov    %rax,0x2024b0(%rip)        # 2037c0 <infile>
    1310:	e9 21 ff ff ff       	jmpq   1236 <main+0x36>
    1315:	48 8b 53 08          	mov    0x8(%rbx),%rdx
    1319:	48 8b 33             	mov    (%rbx),%rsi
    131c:	48 8d 3d 01 0f 00 00 	lea    0xf01(%rip),%rdi        # 2224 <_IO_stdin_used+0x4>
    1323:	e8 08 fc ff ff       	callq  f30 <printf@plt>
    1328:	bf 08 00 00 00       	mov    $0x8,%edi
    132d:	e8 2e fd ff ff       	callq  1060 <exit@plt>
    1332:	48 8b 36             	mov    (%rsi),%rsi
    1335:	48 8d 3d 05 0f 00 00 	lea    0xf05(%rip),%rdi        # 2241 <_IO_stdin_used+0x21>
    133c:	b8 00 00 00 00       	mov    $0x0,%eax
    1341:	e8 ea fb ff ff       	callq  f30 <printf@plt>
    1346:	bf 08 00 00 00       	mov    $0x8,%edi
    134b:	e8 10 fd ff ff       	callq  1060 <exit@plt>

0000000000001350 <phase_1>:
    1350:	48 83 ec 08          	sub    $0x8,%rsp
    1354:	48 8d 35 15 10 00 00 	lea    0x1015(%rip),%rsi        # 2370 <_IO_stdin_used+0x150>
    135b:	e8 0b 04 00 00       	callq  176b <strings_not_equal>
    1360:	85 c0                	test   %eax,%eax
    1362:	75 05                	jne    1369 <phase_1+0x19>
    1364:	48 83 c4 08          	add    $0x8,%rsp
    1368:	c3                   	retq   
    1369:	e8 0d 0c 00 00       	callq  1f7b <explode_bomb>
    136e:	eb f4                	jmp    1364 <phase_1+0x14>

0000000000001370 <phase_2>:
    1370:	55                   	push   %rbp
    1371:	53                   	push   %rbx
    1372:	48 83 ec 28          	sub    $0x28,%rsp
    1376:	48 89 e5             	mov    %rsp,%rbp
    1379:	48 89 e6             	mov    %rsp,%rsi
    137c:	e8 36 0c 00 00       	callq  1fb7 <read_six_numbers>
    1381:	48 89 e3             	mov    %rsp,%rbx
    1384:	48 83 c5 14          	add    $0x14,%rbp
    1388:	eb 09                	jmp    1393 <phase_2+0x23>
    138a:	48 83 c3 04          	add    $0x4,%rbx
    138e:	48 39 eb             	cmp    %rbp,%rbx
    1391:	74 11                	je     13a4 <phase_2+0x34>
    1393:	8b 03                	mov    (%rbx),%eax
    1395:	83 c0 05             	add    $0x5,%eax
    1398:	39 43 04             	cmp    %eax,0x4(%rbx)
    139b:	74 ed                	je     138a <phase_2+0x1a>
    139d:	e8 d9 0b 00 00       	callq  1f7b <explode_bomb>
    13a2:	eb e6                	jmp    138a <phase_2+0x1a>
    13a4:	48 83 c4 28          	add    $0x28,%rsp
    13a8:	5b                   	pop    %rbx
    13a9:	5d                   	pop    %rbp
    13aa:	c3                   	retq   

00000000000013ab <phase_3>:
    13ab:	48 83 ec 18          	sub    $0x18,%rsp
    13af:	48 8d 4c 24 08       	lea    0x8(%rsp),%rcx
    13b4:	48 8d 54 24 0c       	lea    0xc(%rsp),%rdx
    13b9:	48 8d 35 a3 13 00 00 	lea    0x13a3(%rip),%rsi        # 2763 <array.3088+0x363>
    13c0:	b8 00 00 00 00       	mov    $0x0,%eax
    13c5:	e8 36 fc ff ff       	callq  1000 <__isoc99_sscanf@plt>
    13ca:	83 f8 01             	cmp    $0x1,%eax
    13cd:	7e 1f                	jle    13ee <phase_3+0x43>//explode_bomb
    13cf:	83 7c 24 0c 07       	cmpl   $0x7,0xc(%rsp)
    13d4:	0f 87 89 00 00 00    	ja     1463 <phase_3+0xb8>//explode_bomb
    13da:	8b 44 24 0c          	mov    0xc(%rsp),%eax
    13de:	48 8d 15 fb 0f 00 00 	lea    0xffb(%rip),%rdx        # 23e0 <_IO_stdin_used+0x1c0>
    13e5:	48 63 04 82          	movslq (%rdx,%rax,4),%rax
    13e9:	48 01 d0             	add    %rdx,%rax
    13ec:	ff e0                	jmpq   *%rax//1455
    13ee:	e8 88 0b 00 00       	callq  1f7b <explode_bomb>
    13f3:	eb da                	jmp    13cf <phase_3+0x24>
    13f5:	b8 0b 03 00 00       	mov    $0x30b,%eax
    13fa:	eb 05                	jmp    1401 <phase_3+0x56>
    13fc:	b8 00 00 00 00       	mov    $0x0,%eax
    1401:	2d 90 01 00 00       	sub    $0x190,%eax
    1406:	83 c0 4f             	add    $0x4f,%eax
    1409:	2d 52 02 00 00       	sub    $0x252,%eax
    140e:	05 35 02 00 00       	add    $0x235,%eax
    1413:	2d d0 03 00 00       	sub    $0x3d0,%eax
    1418:	05 d0 03 00 00       	add    $0x3d0,%eax
    141d:	2d 71 02 00 00       	sub    $0x271,%eax
    1422:	83 7c 24 0c 05       	cmpl   $0x5,0xc(%rsp)
    1427:	7f 06                	jg     142f <phase_3+0x84>//explode_bomb
    1429:	3b 44 24 08          	cmp    0x8(%rsp),%eax
    142d:	74 05                	je     1434 <phase_3+0x89>
    142f:	e8 47 0b 00 00       	callq  1f7b <explode_bomb>
    1434:	48 83 c4 18          	add    $0x18,%rsp
    1438:	c3                   	retq   
    1439:	b8 00 00 00 00       	mov    $0x0,%eax
    143e:	eb c6                	jmp    1406 <phase_3+0x5b>
    1440:	b8 00 00 00 00       	mov    $0x0,%eax
    1445:	eb c2                	jmp    1409 <phase_3+0x5e>
    1447:	b8 00 00 00 00       	mov    $0x0,%eax
    144c:	eb c0                	jmp    140e <phase_3+0x63>
    144e:	b8 00 00 00 00       	mov    $0x0,%eax
    1453:	eb be                	jmp    1413 <phase_3+0x68>
    1455:	b8 00 00 00 00       	mov    $0x0,%eax
    145a:	eb bc                	jmp    1418 <phase_3+0x6d>
    145c:	b8 00 00 00 00       	mov    $0x0,%eax
    1461:	eb ba                	jmp    141d <phase_3+0x72>
    1463:	e8 13 0b 00 00       	callq  1f7b <explode_bomb>
    1468:	b8 00 00 00 00       	mov    $0x0,%eax
    146d:	eb b3                	jmp    1422 <phase_3+0x77>

000000000000146f <func4>:
    146f:	b8 01 00 00 00       	mov    $0x1,%eax
    1474:	85 ff                	test   %edi,%edi
    1476:	7e 1b                	jle    1493 <func4+0x24>
    1478:	48 83 ec 08          	sub    $0x8,%rsp
    147c:	83 ef 01             	sub    $0x1,%edi
    147f:	e8 eb ff ff ff       	callq  146f <func4>
    1484:	8d 14 c5 00 00 00 00 	lea    0x0(,%rax,8),%edx
    148b:	29 c2                	sub    %eax,%edx
    148d:	89 d0                	mov    %edx,%eax
    148f:	48 83 c4 08          	add    $0x8,%rsp
    1493:	f3 c3                	repz retq 

0000000000001495 <phase_4>:
    1495:	48 83 ec 18          	sub    $0x18,%rsp
    1499:	48 8d 54 24 0c       	lea    0xc(%rsp),%rdx
    149e:	48 8d 35 c1 12 00 00 	lea    0x12c1(%rip),%rsi        # 2766 <array.3088+0x366>
    14a5:	b8 00 00 00 00       	mov    $0x0,%eax
    14aa:	e8 51 fb ff ff       	callq  1000 <__isoc99_sscanf@plt>
    14af:	83 f8 01             	cmp    $0x1,%eax
    14b2:	74 1f                	je     14d3 <phase_4+0x3e>
    14b4:	e8 c2 0a 00 00       	callq  1f7b <explode_bomb>
    14b9:	8b 7c 24 0c          	mov    0xc(%rsp),%edi
    14bd:	e8 ad ff ff ff       	callq  146f <func4>
    14c2:	3d 61 09 00 00       	cmp    $0x961,%eax
    14c7:	74 05                	je     14ce <phase_4+0x39>
    14c9:	e8 ad 0a 00 00       	callq  1f7b <explode_bomb>
    14ce:	48 83 c4 18          	add    $0x18,%rsp
    14d2:	c3                   	retq   
    14d3:	83 7c 24 0c 00       	cmpl   $0x0,0xc(%rsp)
    14d8:	7f df                	jg     14b9 <phase_4+0x24>
    14da:	eb d8                	jmp    14b4 <phase_4+0x1f>//explode_bomb

00000000000014dc <phase_5>:
    14dc:	48 83 ec 18          	sub    $0x18,%rsp
    14e0:	48 8d 4c 24 08       	lea    0x8(%rsp),%rcx
    14e5:	48 8d 54 24 0c       	lea    0xc(%rsp),%rdx
    14ea:	48 8d 35 72 12 00 00 	lea    0x1272(%rip),%rsi        # 2763 <array.3088+0x363>
    {10 2 14 7 8 12 15 11 0 4 1 13 3 9 6 5}
    14f1:	b8 00 00 00 00       	mov    $0x0,%eax
    14f6:	e8 05 fb ff ff       	callq  1000 <__isoc99_sscanf@plt>
    14fb:	83 f8 01             	cmp    $0x1,%eax
    14fe:	7e 4d                	jle    154d <phase_5+0x71>//explode_bomb
    1500:	8b 44 24 0c          	mov    0xc(%rsp),%eax
    1504:	83 e0 0f             	and    $0xf,%eax
    1507:	89 44 24 0c          	mov    %eax,0xc(%rsp)
    150b:	83 f8 0f             	cmp    $0xf,%eax
    150e:	74 33                	je     1543 <phase_5+0x67>//explode_bomb
    1510:	b9 00 00 00 00       	mov    $0x0,%ecx
    1515:	ba 00 00 00 00       	mov    $0x0,%edx
    151a:	48 8d 35 df 0e 00 00 	lea    0xedf(%rip),%rsi        # 2400 <array.3088>
    1521:	83 c2 01             	add    $0x1,%edx
    1524:	48 98                	cltq   
    1526:	8b 04 86             	mov    (%rsi,%rax,4),%eax
    1529:	01 c1                	add    %eax,%ecx
    152b:	83 f8 0f             	cmp    $0xf,%eax
    152e:	75 f1                	jne    1521 <phase_5+0x45>
    1530:	c7 44 24 0c 0f 00 00 	movl   $0xf,0xc(%rsp)
    1537:	00 
    1538:	83 fa 08             	cmp    $0x8,%edx
    153b:	75 06                	jne    1543 <phase_5+0x67>//explode_bomb
    153d:	3b 4c 24 08          	cmp    0x8(%rsp),%ecx
    1541:	74 05                	je     1548 <phase_5+0x6c>
    1543:	e8 33 0a 00 00       	callq  1f7b <explode_bomb>
    1548:	48 83 c4 18          	add    $0x18,%rsp
    154c:	c3                   	retq   
    154d:	e8 29 0a 00 00       	callq  1f7b <explode_bomb>
    1552:	eb ac                	jmp    1500 <phase_5+0x24>

0000000000001554 <phase_6>:
    1554:	41 55                	push   %r13
    1556:	41 54                	push   %r12
    1558:	55                   	push   %rbp
    1559:	53                   	push   %rbx
    155a:	48 83 ec 58          	sub    $0x58,%rsp
    155e:	4c 8d 64 24 30       	lea    0x30(%rsp),%r12
    1563:	4c 89 e6             	mov    %r12,%rsi
    1566:	e8 4c 0a 00 00       	callq  1fb7 <read_six_numbers>
    156b:	41 bd 00 00 00 00    	mov    $0x0,%r13d
    1571:	eb 25                	jmp    1598 <phase_6+0x44>
    1573:	41 83 c5 01          	add    $0x1,%r13d
    1577:	41 83 fd 06          	cmp    $0x6,%r13d
    157b:	74 38                	je     15b5 <phase_6+0x61>
    157d:	44 89 eb             	mov    %r13d,%ebx
    1580:	48 63 c3             	movslq %ebx,%rax
    1583:	8b 44 84 30          	mov    0x30(%rsp,%rax,4),%eax
    1587:	39 45 00             	cmp    %eax,0x0(%rbp)
    158a:	74 22                	je     15ae <phase_6+0x5a>//explode_bomb
    158c:	83 c3 01             	add    $0x1,%ebx
    158f:	83 fb 05             	cmp    $0x5,%ebx
    1592:	7e ec                	jle    1580 <phase_6+0x2c>
    1594:	49 83 c4 04          	add    $0x4,%r12
    1598:	4c 89 e5             	mov    %r12,%rbp
    159b:	41 8b 04 24          	mov    (%r12),%eax
    159f:	83 e8 01             	sub    $0x1,%eax
    15a2:	83 f8 05             	cmp    $0x5,%eax
    15a5:	76 cc                	jbe    1573 <phase_6+0x1f>
    15a7:	e8 cf 09 00 00       	callq  1f7b <explode_bomb>
    15ac:	eb c5                	jmp    1573 <phase_6+0x1f>
    15ae:	e8 c8 09 00 00       	callq  1f7b <explode_bomb>
    15b3:	eb d7                	jmp    158c <phase_6+0x38>
    first itertion
    15b5:	be 00 00 00 00       	mov    $0x0,%esi
    15ba:	8b 4c 34 30          	mov    0x30(%rsp,%rsi,1),%ecx
    15be:	b8 01 00 00 00       	mov    $0x1,%eax
    15c3:	48 8d 15 86 21 20 00 	lea    0x202186(%rip),%rdx//rdx指向6        # 203750 <node1>
    15ca:	83 f9 01             	cmp    $0x1,%ecx
    15cd:	7e 0b                	jle    15da <phase_6+0x86>
    15cf:	48 8b 52 08          	mov    0x8(%rdx),%rdx
    15d3:	83 c0 01             	add    $0x1,%eax
    15d6:	39 c8                	cmp    %ecx,%eax
    15d8:	75 f5                	jne    15cf <phase_6+0x7b>
    15da:	48 89 14 74          	mov    %rdx,(%rsp,%rsi,2)
    15de:	48 83 c6 04          	add    $0x4,%rsi
    15e2:	48 83 fe 18          	cmp    $0x18,%rsi
    15e6:	75 d2                	jne    15ba <phase_6+0x66>
    second
    15e8:	48 8b 1c 24          	mov    (%rsp),%rbx
    15ec:	48 89 e0             	mov    %rsp,%rax
    15ef:	48 8d 74 24 28       	lea    0x28(%rsp),%rsi
    15f4:	48 89 d9             	mov    %rbx,%rcx
    15f7:	48 8b 50 08          	mov    0x8(%rax),%rdx
    15fb:	48 89 51 08          	mov    %rdx,0x8(%rcx)
    15ff:	48 83 c0 08          	add    $0x8,%rax
    1603:	48 89 d1             	mov    %rdx,%rcx
    1606:	48 39 c6             	cmp    %rax,%rsi
    1609:	75 ec                	jne    15f7 <phase_6+0xa3>
    160b:	48 c7 42 08 00 00 00 	movq   $0x0,0x8(%rdx)
    1612:	00 
    1613:	bd 05 00 00 00       	mov    $0x5,%ebp
    1618:	eb 09                	jmp    1623 <phase_6+0xcf>
    161a:	48 8b 5b 08          	mov    0x8(%rbx),%rbx
    161e:	83 ed 01             	sub    $0x1,%ebp
    1621:	74 11                	je     1634 <phase_6+0xe0>
    1623:	48 8b 43 08          	mov    0x8(%rbx),%rax
    1627:	8b 00                	mov    (%rax),%eax
    1629:	39 03                	cmp    %eax,(%rbx)
    162b:	7d ed                	jge    161a <phase_6+0xc6>
    162d:	e8 49 09 00 00       	callq  1f7b <explode_bomb>
    1632:	eb e6                	jmp    161a <phase_6+0xc6>
    1634:	48 83 c4 58          	add    $0x58,%rsp
    1638:	5b                   	pop    %rbx
    1639:	5d                   	pop    %rbp
    163a:	41 5c                	pop    %r12
    163c:	41 5d                	pop    %r13
    163e:	c3                   	retq   

000000000000163f <fun7>:
    163f:	48 85 ff             	test   %rdi,%rdi
    1642:	74 32                	je     1676 <fun7+0x37>
    1644:	48 83 ec 08          	sub    $0x8,%rsp
    1648:	8b 17                	mov    (%rdi),%edx
    164a:	39 f2                	cmp    %esi,%edx
    164c:	7f 1b                	jg     1669 <fun7+0x2a>
    164e:	b8 00 00 00 00       	mov    $0x0,%eax
    1653:	39 f2                	cmp    %esi,%edx
    1655:	74 0d                	je     1664 <fun7+0x25>
    1657:	48 8b 7f 10          	mov    0x10(%rdi),%rdi
    165b:	e8 df ff ff ff       	callq  163f <fun7>
    1660:	8d 44 00 01          	lea    0x1(%rax,%rax,1),%eax
    1664:	48 83 c4 08          	add    $0x8,%rsp
    1668:	c3                   	retq   
    1669:	48 8b 7f 08          	mov    0x8(%rdi),%rdi
    166d:	e8 cd ff ff ff       	callq  163f <fun7>
    1672:	01 c0                	add    %eax,%eax
    1674:	eb ee                	jmp    1664 <fun7+0x25>
    1676:	b8 ff ff ff ff       	mov    $0xffffffff,%eax
    167b:	c3                   	retq   

000000000000167c <secret_phase>:
    167c:	53                   	push   %rbx
    167d:	e8 76 09 00 00       	callq  1ff8 <read_line>
    1682:	ba 0a 00 00 00       	mov    $0xa,%edx
    1687:	be 00 00 00 00       	mov    $0x0,%esi
    168c:	48 89 c7             	mov    %rax,%rdi
    168f:	e8 3c f9 ff ff       	callq  fd0 <strtol@plt>
    1694:	48 89 c3             	mov    %rax,%rbx
    1697:	8d 40 ff             	lea    -0x1(%rax),%eax
    169a:	3d e8 03 00 00       	cmp    $0x3e8,%eax
    169f:	77 25                	ja     16c6 <secret_phase+0x4a>
    16a1:	89 de                	mov    %ebx,%esi
    16a3:	48 8d 3d c6 1f 20 00 	lea    0x201fc6(%rip),%rdi        # 203670 <n1>
    16aa:	e8 90 ff ff ff       	callq  163f <fun7>
    16af:	85 c0                	test   %eax,%eax
    16b1:	75 1a                	jne    16cd <secret_phase+0x51>
    16b3:	48 8d 3d ee 0c 00 00 	lea    0xcee(%rip),%rdi        # 23a8 <_IO_stdin_used+0x188>
    16ba:	e8 31 f8 ff ff       	callq  ef0 <puts@plt>
    16bf:	e8 35 0a 00 00       	callq  20f9 <phase_defused>
    16c4:	5b                   	pop    %rbx
    16c5:	c3                   	retq   
    16c6:	e8 b0 08 00 00       	callq  1f7b <explode_bomb>
    16cb:	eb d4                	jmp    16a1 <secret_phase+0x25>
    16cd:	e8 a9 08 00 00       	callq  1f7b <explode_bomb>
    16d2:	eb df                	jmp    16b3 <secret_phase+0x37>

00000000000016d4 <sig_handler>:
    16d4:	48 83 ec 08          	sub    $0x8,%rsp
    16d8:	48 8d 3d 61 0d 00 00 	lea    0xd61(%rip),%rdi        # 2440 <array.3088+0x40>
    16df:	e8 0c f8 ff ff       	callq  ef0 <puts@plt>
    16e4:	bf 03 00 00 00       	mov    $0x3,%edi
    16e9:	e8 a2 f9 ff ff       	callq  1090 <sleep@plt>
    16ee:	48 8d 3d 83 0e 00 00 	lea    0xe83(%rip),%rdi        # 2578 <array.3088+0x178>
    16f5:	b8 00 00 00 00       	mov    $0x0,%eax
    16fa:	e8 31 f8 ff ff       	callq  f30 <printf@plt>
    16ff:	48 8b 3d 9a 20 20 00 	mov    0x20209a(%rip),%rdi        # 2037a0 <stdout@@GLIBC_2.2.5>
    1706:	e8 e5 f8 ff ff       	callq  ff0 <fflush@plt>
    170b:	bf 01 00 00 00       	mov    $0x1,%edi
    1710:	e8 7b f9 ff ff       	callq  1090 <sleep@plt>
    1715:	48 8d 3d 64 0e 00 00 	lea    0xe64(%rip),%rdi        # 2580 <array.3088+0x180>
    171c:	e8 cf f7 ff ff       	callq  ef0 <puts@plt>
    1721:	bf 10 00 00 00       	mov    $0x10,%edi
    1726:	e8 35 f9 ff ff       	callq  1060 <exit@plt>

000000000000172b <invalid_phase>:
    172b:	48 83 ec 08          	sub    $0x8,%rsp
    172f:	48 89 fe             	mov    %rdi,%rsi
    1732:	48 8d 3d 4f 0e 00 00 	lea    0xe4f(%rip),%rdi        # 2588 <array.3088+0x188>
    1739:	b8 00 00 00 00       	mov    $0x0,%eax
    173e:	e8 ed f7 ff ff       	callq  f30 <printf@plt>
    1743:	bf 08 00 00 00       	mov    $0x8,%edi
    1748:	e8 13 f9 ff ff       	callq  1060 <exit@plt>

000000000000174d <string_length>:
    174d:	80 3f 00             	cmpb   $0x0,(%rdi)
    1750:	74 13                	je     1765 <string_length+0x18>
    1752:	b8 00 00 00 00       	mov    $0x0,%eax
    1757:	48 83 c7 01          	add    $0x1,%rdi
    175b:	83 c0 01             	add    $0x1,%eax
    175e:	80 3f 00             	cmpb   $0x0,(%rdi)
    1761:	75 f4                	jne    1757 <string_length+0xa>
    1763:	f3 c3                	repz retq 
    1765:	b8 00 00 00 00       	mov    $0x0,%eax
    176a:	c3                   	retq   

000000000000176b <strings_not_equal>:
    176b:	41 54                	push   %r12
    176d:	55                   	push   %rbp
    176e:	53                   	push   %rbx
    176f:	48 89 fb             	mov    %rdi,%rbx
    1772:	48 89 f5             	mov    %rsi,%rbp
    1775:	e8 d3 ff ff ff       	callq  174d <string_length>
    177a:	41 89 c4             	mov    %eax,%r12d
    177d:	48 89 ef             	mov    %rbp,%rdi
    1780:	e8 c8 ff ff ff       	callq  174d <string_length>
    1785:	ba 01 00 00 00       	mov    $0x1,%edx
    178a:	41 39 c4             	cmp    %eax,%r12d
    178d:	74 07                	je     1796 <strings_not_equal+0x2b>
    178f:	89 d0                	mov    %edx,%eax
    1791:	5b                   	pop    %rbx
    1792:	5d                   	pop    %rbp
    1793:	41 5c                	pop    %r12
    1795:	c3                   	retq   
    1796:	0f b6 03             	movzbl (%rbx),%eax
    1799:	84 c0                	test   %al,%al
    179b:	74 27                	je     17c4 <strings_not_equal+0x59>
    179d:	3a 45 00             	cmp    0x0(%rbp),%al
    17a0:	75 29                	jne    17cb <strings_not_equal+0x60>
    17a2:	48 83 c3 01          	add    $0x1,%rbx
    17a6:	48 83 c5 01          	add    $0x1,%rbp
    17aa:	0f b6 03             	movzbl (%rbx),%eax
    17ad:	84 c0                	test   %al,%al
    17af:	74 0c                	je     17bd <strings_not_equal+0x52>
    17b1:	3a 45 00             	cmp    0x0(%rbp),%al
    17b4:	74 ec                	je     17a2 <strings_not_equal+0x37>
    17b6:	ba 01 00 00 00       	mov    $0x1,%edx
    17bb:	eb d2                	jmp    178f <strings_not_equal+0x24>
    17bd:	ba 00 00 00 00       	mov    $0x0,%edx
    17c2:	eb cb                	jmp    178f <strings_not_equal+0x24>
    17c4:	ba 00 00 00 00       	mov    $0x0,%edx
    17c9:	eb c4                	jmp    178f <strings_not_equal+0x24>
    17cb:	ba 01 00 00 00       	mov    $0x1,%edx
    17d0:	eb bd                	jmp    178f <strings_not_equal+0x24>

00000000000017d2 <open_clientfd>:
    17d2:	41 54                	push   %r12
    17d4:	55                   	push   %rbp
    17d5:	53                   	push   %rbx
    17d6:	48 83 ec 10          	sub    $0x10,%rsp
    17da:	49 89 fc             	mov    %rdi,%r12
    17dd:	89 f3                	mov    %esi,%ebx
    17df:	ba 00 00 00 00       	mov    $0x0,%edx
    17e4:	be 01 00 00 00       	mov    $0x1,%esi
    17e9:	bf 02 00 00 00       	mov    $0x2,%edi
    17ee:	e8 bd f8 ff ff       	callq  10b0 <socket@plt>
    17f3:	85 c0                	test   %eax,%eax
    17f5:	78 64                	js     185b <open_clientfd+0x89>
    17f7:	89 c5                	mov    %eax,%ebp
    17f9:	4c 89 e7             	mov    %r12,%rdi
    17fc:	e8 af f7 ff ff       	callq  fb0 <gethostbyname@plt>
    1801:	48 85 c0             	test   %rax,%rax
    1804:	74 6b                	je     1871 <open_clientfd+0x9f>
    1806:	48 c7 04 24 00 00 00 	movq   $0x0,(%rsp)
    180d:	00 
    180e:	48 c7 44 24 08 00 00 	movq   $0x0,0x8(%rsp)
    1815:	00 00 
    1817:	66 c7 04 24 02 00    	movw   $0x2,(%rsp)
    181d:	48 63 50 14          	movslq 0x14(%rax),%rdx
    1821:	48 8d 74 24 04       	lea    0x4(%rsp),%rsi
    1826:	48 8b 40 18          	mov    0x18(%rax),%rax
    182a:	48 8b 38             	mov    (%rax),%rdi
    182d:	e8 de f7 ff ff       	callq  1010 <bcopy@plt>
    1832:	89 de                	mov    %ebx,%esi
    1834:	66 c1 ce 08          	ror    $0x8,%si
    1838:	66 89 74 24 02       	mov    %si,0x2(%rsp)
    183d:	ba 10 00 00 00       	mov    $0x10,%edx
    1842:	48 89 e6             	mov    %rsp,%rsi
    1845:	89 ef                	mov    %ebp,%edi
    1847:	e8 24 f8 ff ff       	callq  1070 <connect@plt>
    184c:	85 c0                	test   %eax,%eax
    184e:	78 37                	js     1887 <open_clientfd+0xb5>
    1850:	89 e8                	mov    %ebp,%eax
    1852:	48 83 c4 10          	add    $0x10,%rsp
    1856:	5b                   	pop    %rbx
    1857:	5d                   	pop    %rbp
    1858:	41 5c                	pop    %r12
    185a:	c3                   	retq   
    185b:	48 8d 3d 37 0d 00 00 	lea    0xd37(%rip),%rdi        # 2599 <array.3088+0x199>
    1862:	e8 89 f6 ff ff       	callq  ef0 <puts@plt>
    1867:	bf 08 00 00 00       	mov    $0x8,%edi
    186c:	e8 ef f7 ff ff       	callq  1060 <exit@plt>
    1871:	48 8d 3d 2f 0d 00 00 	lea    0xd2f(%rip),%rdi        # 25a7 <array.3088+0x1a7>
    1878:	e8 73 f6 ff ff       	callq  ef0 <puts@plt>
    187d:	bf 08 00 00 00       	mov    $0x8,%edi
    1882:	e8 d9 f7 ff ff       	callq  1060 <exit@plt>
    1887:	48 8d 3d 27 0d 00 00 	lea    0xd27(%rip),%rdi        # 25b5 <array.3088+0x1b5>
    188e:	e8 5d f6 ff ff       	callq  ef0 <puts@plt>
    1893:	bf 08 00 00 00       	mov    $0x8,%edi
    1898:	e8 c3 f7 ff ff       	callq  1060 <exit@plt>

000000000000189d <initialize_bomb>:
    189d:	48 83 ec 08          	sub    $0x8,%rsp
    18a1:	48 8d 35 2c fe ff ff 	lea    -0x1d4(%rip),%rsi        # 16d4 <sig_handler>
    18a8:	bf 02 00 00 00       	mov    $0x2,%edi
    18ad:	e8 ee f6 ff ff       	callq  fa0 <signal@plt>
    18b2:	be 50 00 00 00       	mov    $0x50,%esi
    18b7:	48 8d 3d 05 0d 00 00 	lea    0xd05(%rip),%rdi        # 25c3 <array.3088+0x1c3>
    18be:	e8 0f ff ff ff       	callq  17d2 <open_clientfd>
    18c3:	89 c7                	mov    %eax,%edi
    18c5:	e8 96 f6 ff ff       	callq  f60 <close@plt>
    18ca:	48 83 c4 08          	add    $0x8,%rsp
    18ce:	c3                   	retq   

00000000000018cf <blank_line>:
    18cf:	55                   	push   %rbp
    18d0:	53                   	push   %rbx
    18d1:	48 83 ec 08          	sub    $0x8,%rsp
    18d5:	48 89 fd             	mov    %rdi,%rbp
    18d8:	0f b6 5d 00          	movzbl 0x0(%rbp),%ebx
    18dc:	84 db                	test   %bl,%bl
    18de:	74 1e                	je     18fe <blank_line+0x2f>
    18e0:	e8 bb f7 ff ff       	callq  10a0 <__ctype_b_loc@plt>
    18e5:	48 83 c5 01          	add    $0x1,%rbp
    18e9:	48 0f be db          	movsbq %bl,%rbx
    18ed:	48 8b 00             	mov    (%rax),%rax
    18f0:	f6 44 58 01 20       	testb  $0x20,0x1(%rax,%rbx,2)
    18f5:	75 e1                	jne    18d8 <blank_line+0x9>
    18f7:	b8 00 00 00 00       	mov    $0x0,%eax
    18fc:	eb 05                	jmp    1903 <blank_line+0x34>
    18fe:	b8 01 00 00 00       	mov    $0x1,%eax
    1903:	48 83 c4 08          	add    $0x8,%rsp
    1907:	5b                   	pop    %rbx
    1908:	5d                   	pop    %rbp
    1909:	c3                   	retq   

000000000000190a <skip>:
    190a:	55                   	push   %rbp
    190b:	53                   	push   %rbx
    190c:	48 83 ec 08          	sub    $0x8,%rsp
    1910:	48 8d 2d c9 1e 20 00 	lea    0x201ec9(%rip),%rbp        # 2037e0 <input_strings>
    1917:	48 63 05 9e 1e 20 00 	movslq 0x201e9e(%rip),%rax        # 2037bc <num_input_strings>
    191e:	48 8d 3c 80          	lea    (%rax,%rax,4),%rdi
    1922:	48 c1 e7 04          	shl    $0x4,%rdi
    1926:	48 01 ef             	add    %rbp,%rdi
    1929:	48 8b 15 90 1e 20 00 	mov    0x201e90(%rip),%rdx        # 2037c0 <infile>
    1930:	be 50 00 00 00       	mov    $0x50,%esi
    1935:	e8 46 f6 ff ff       	callq  f80 <fgets@plt>
    193a:	48 89 c3             	mov    %rax,%rbx
    193d:	48 85 c0             	test   %rax,%rax
    1940:	74 0c                	je     194e <skip+0x44>
    1942:	48 89 c7             	mov    %rax,%rdi
    1945:	e8 85 ff ff ff       	callq  18cf <blank_line>
    194a:	85 c0                	test   %eax,%eax
    194c:	75 c9                	jne    1917 <skip+0xd>
    194e:	48 89 d8             	mov    %rbx,%rax
    1951:	48 83 c4 08          	add    $0x8,%rsp
    1955:	5b                   	pop    %rbx
    1956:	5d                   	pop    %rbp
    1957:	c3                   	retq   

0000000000001958 <writen>:
    1958:	41 56                	push   %r14
    195a:	41 55                	push   %r13
    195c:	41 54                	push   %r12
    195e:	55                   	push   %rbp
    195f:	53                   	push   %rbx
    1960:	49 89 d5             	mov    %rdx,%r13
    1963:	48 85 d2             	test   %rdx,%rdx
    1966:	74 3b                	je     19a3 <writen+0x4b>
    1968:	41 89 fc             	mov    %edi,%r12d
    196b:	48 89 f5             	mov    %rsi,%rbp
    196e:	48 89 d3             	mov    %rdx,%rbx
    1971:	41 be 00 00 00 00    	mov    $0x0,%r14d
    1977:	eb 08                	jmp    1981 <writen+0x29>
    1979:	48 01 c5             	add    %rax,%rbp
    197c:	48 29 c3             	sub    %rax,%rbx
    197f:	74 22                	je     19a3 <writen+0x4b>
    1981:	48 89 da             	mov    %rbx,%rdx
    1984:	48 89 ee             	mov    %rbp,%rsi
    1987:	44 89 e7             	mov    %r12d,%edi
    198a:	e8 71 f5 ff ff       	callq  f00 <write@plt>
    198f:	48 85 c0             	test   %rax,%rax
    1992:	7f e5                	jg     1979 <writen+0x21>
    1994:	e8 37 f5 ff ff       	callq  ed0 <__errno_location@plt>
    1999:	83 38 04             	cmpl   $0x4,(%rax)
    199c:	75 11                	jne    19af <writen+0x57>
    199e:	4c 89 f0             	mov    %r14,%rax
    19a1:	eb d6                	jmp    1979 <writen+0x21>
    19a3:	4c 89 e8             	mov    %r13,%rax
    19a6:	5b                   	pop    %rbx
    19a7:	5d                   	pop    %rbp
    19a8:	41 5c                	pop    %r12
    19aa:	41 5d                	pop    %r13
    19ac:	41 5e                	pop    %r14
    19ae:	c3                   	retq   
    19af:	48 c7 c0 ff ff ff ff 	mov    $0xffffffffffffffff,%rax
    19b6:	eb ee                	jmp    19a6 <writen+0x4e>

00000000000019b8 <send_msg>:
    19b8:	41 57                	push   %r15
    19ba:	41 56                	push   %r14
    19bc:	41 55                	push   %r13
    19be:	41 54                	push   %r12
    19c0:	55                   	push   %rbp
    19c1:	53                   	push   %rbx
    19c2:	48 81 ec 68 24 00 00 	sub    $0x2468,%rsp
    19c9:	41 89 fc             	mov    %edi,%r12d
    19cc:	ba 00 00 00 00       	mov    $0x0,%edx
    19d1:	be 01 00 00 00       	mov    $0x1,%esi
    19d6:	bf 02 00 00 00       	mov    $0x2,%edi
    19db:	e8 d0 f6 ff ff       	callq  10b0 <socket@plt>
    19e0:	41 89 c7             	mov    %eax,%r15d
    19e3:	85 c0                	test   %eax,%eax
    19e5:	0f 88 2a 02 00 00    	js     1c15 <send_msg+0x25d>
    19eb:	48 c7 84 24 50 24 00 	movq   $0x0,0x2450(%rsp)
    19f2:	00 00 00 00 00 
    19f7:	48 c7 84 24 58 24 00 	movq   $0x0,0x2458(%rsp)
    19fe:	00 00 00 00 00 
    1a03:	66 c7 84 24 50 24 00 	movw   $0x2,0x2450(%rsp)
    1a0a:	00 02 00 
    1a0d:	66 c7 84 24 52 24 00 	movw   $0x7ac8,0x2452(%rsp)
    1a14:	00 c8 7a 
    1a17:	48 8d 94 24 54 24 00 	lea    0x2454(%rsp),%rdx
    1a1e:	00 
    1a1f:	48 8d 35 9d 0b 00 00 	lea    0xb9d(%rip),%rsi        # 25c3 <array.3088+0x1c3>
    1a26:	bf 02 00 00 00       	mov    $0x2,%edi
    1a2b:	b8 00 00 00 00       	mov    $0x0,%eax
    1a30:	e8 ab f5 ff ff       	callq  fe0 <inet_pton@plt>
    1a35:	85 c0                	test   %eax,%eax
    1a37:	0f 88 09 02 00 00    	js     1c46 <send_msg+0x28e>
    1a3d:	48 8d b4 24 50 24 00 	lea    0x2450(%rsp),%rsi
    1a44:	00 
    1a45:	ba 10 00 00 00       	mov    $0x10,%edx
    1a4a:	44 89 ff             	mov    %r15d,%edi
    1a4d:	e8 1e f6 ff ff       	callq  1070 <connect@plt>
    1a52:	85 c0                	test   %eax,%eax
    1a54:	0f 88 22 02 00 00    	js     1c7c <send_msg+0x2c4>
    1a5a:	48 8d 6c 24 50       	lea    0x50(%rsp),%rbp
    1a5f:	48 b8 53 75 62 6a 65 	movabs $0x3a7463656a627553,%rax
    1a66:	63 74 3a 
    1a69:	48 89 44 24 50       	mov    %rax,0x50(%rsp)
    1a6e:	48 b8 20 42 6f 6d 62 	movabs $0x6f6e20626d6f4220,%rax
    1a75:	20 6e 6f 
    1a78:	48 89 44 24 58       	mov    %rax,0x58(%rsp)
    1a7d:	48 b8 74 69 66 69 63 	movabs $0x6974616369666974,%rax
    1a84:	61 74 69 
    1a87:	48 89 44 24 60       	mov    %rax,0x60(%rsp)
    1a8c:	c7 44 24 68 6f 6e 0a 	movl   $0xa6e6f,0x68(%rsp)
    1a93:	00 
    1a94:	48 8d 9c 24 50 04 00 	lea    0x450(%rsp),%rbx
    1a9b:	00 
    1a9c:	48 89 ee             	mov    %rbp,%rsi
    1a9f:	48 89 df             	mov    %rbx,%rdi
    1aa2:	e8 99 f5 ff ff       	callq  1040 <strcat@plt>
    1aa7:	66 c7 44 24 50 0a 00 	movw   $0xa,0x50(%rsp)
    1aae:	48 89 ee             	mov    %rbp,%rsi
    1ab1:	48 89 df             	mov    %rbx,%rdi
    1ab4:	e8 87 f5 ff ff       	callq  1040 <strcat@plt>
    1ab9:	bf 00 00 00 00       	mov    $0x0,%edi
    1abe:	e8 5d f5 ff ff       	callq  1020 <cuserid@plt>
    1ac3:	48 85 c0             	test   %rax,%rax
    1ac6:	0f 84 e6 01 00 00    	je     1cb2 <send_msg+0x2fa>
    1acc:	48 89 e7             	mov    %rsp,%rdi
    1acf:	48 89 c6             	mov    %rax,%rsi
    1ad2:	e8 09 f4 ff ff       	callq  ee0 <strcpy@plt>
    1ad7:	45 85 e4             	test   %r12d,%r12d
    1ada:	48 8d 05 f8 0a 00 00 	lea    0xaf8(%rip),%rax        # 25d9 <array.3088+0x1d9>
    1ae1:	4c 8d 0d e9 0a 00 00 	lea    0xae9(%rip),%r9        # 25d1 <array.3088+0x1d1>
    1ae8:	4c 0f 44 c8          	cmove  %rax,%r9
    1aec:	48 8d 5c 24 50       	lea    0x50(%rsp),%rbx
    1af1:	48 83 ec 08          	sub    $0x8,%rsp
    1af5:	8b 05 c1 1c 20 00    	mov    0x201cc1(%rip),%eax        # 2037bc <num_input_strings>
    1afb:	50                   	push   %rax
    1afc:	4c 8d 44 24 10       	lea    0x10(%rsp),%r8
    1b01:	8b 0d 59 1b 20 00    	mov    0x201b59(%rip),%ecx        # 203660 <bomb_id>
    1b07:	48 8d 15 52 17 20 00 	lea    0x201752(%rip),%rdx        # 203260 <lab_id>
    1b0e:	48 8d 35 e8 0a 00 00 	lea    0xae8(%rip),%rsi        # 25fd <array.3088+0x1fd>
    1b15:	48 89 df             	mov    %rbx,%rdi
    1b18:	b8 00 00 00 00       	mov    $0x0,%eax
    1b1d:	e8 2e f5 ff ff       	callq  1050 <sprintf@plt>
    1b22:	48 8d bc 24 60 04 00 	lea    0x460(%rsp),%rdi
    1b29:	00 
    1b2a:	48 89 de             	mov    %rbx,%rsi
    1b2d:	e8 0e f5 ff ff       	callq  1040 <strcat@plt>
    1b32:	48 83 c4 10          	add    $0x10,%rsp
    1b36:	83 3d 7f 1c 20 00 00 	cmpl   $0x0,0x201c7f(%rip)        # 2037bc <num_input_strings>
    1b3d:	7e 70                	jle    1baf <send_msg+0x1f7>
    1b3f:	bb 00 00 00 00       	mov    $0x0,%ebx
    1b44:	4c 8d 35 95 1c 20 00 	lea    0x201c95(%rip),%r14        # 2037e0 <input_strings>
    1b4b:	49 89 e5             	mov    %rsp,%r13
    1b4e:	48 8d 6c 24 50       	lea    0x50(%rsp),%rbp
    1b53:	4c 8d a4 24 50 04 00 	lea    0x450(%rsp),%r12
    1b5a:	00 
    1b5b:	48 63 c3             	movslq %ebx,%rax
    1b5e:	48 8d 04 80          	lea    (%rax,%rax,4),%rax
    1b62:	48 c1 e0 04          	shl    $0x4,%rax
    1b66:	4c 01 f0             	add    %r14,%rax
    1b69:	83 c3 01             	add    $0x1,%ebx
    1b6c:	48 83 ec 08          	sub    $0x8,%rsp
    1b70:	50                   	push   %rax
    1b71:	41 89 d9             	mov    %ebx,%r9d
    1b74:	4d 89 e8             	mov    %r13,%r8
    1b77:	8b 0d e3 1a 20 00    	mov    0x201ae3(%rip),%ecx        # 203660 <bomb_id>
    1b7d:	48 8d 15 dc 16 20 00 	lea    0x2016dc(%rip),%rdx        # 203260 <lab_id>
    1b84:	48 8d 35 8e 0a 00 00 	lea    0xa8e(%rip),%rsi        # 2619 <array.3088+0x219>
    1b8b:	48 89 ef             	mov    %rbp,%rdi
    1b8e:	b8 00 00 00 00       	mov    $0x0,%eax
    1b93:	e8 b8 f4 ff ff       	callq  1050 <sprintf@plt>
    1b98:	48 89 ee             	mov    %rbp,%rsi
    1b9b:	4c 89 e7             	mov    %r12,%rdi
    1b9e:	e8 9d f4 ff ff       	callq  1040 <strcat@plt>
    1ba3:	48 83 c4 10          	add    $0x10,%rsp
    1ba7:	39 1d 0f 1c 20 00    	cmp    %ebx,0x201c0f(%rip)        # 2037bc <num_input_strings>
    1bad:	7f ac                	jg     1b5b <send_msg+0x1a3>
    1baf:	48 8d ac 24 50 04 00 	lea    0x450(%rsp),%rbp
    1bb6:	00 
    1bb7:	49 c7 c4 ff ff ff ff 	mov    $0xffffffffffffffff,%r12
    1bbe:	bb 00 00 00 00       	mov    $0x0,%ebx
    1bc3:	4c 89 e1             	mov    %r12,%rcx
    1bc6:	48 89 ef             	mov    %rbp,%rdi
    1bc9:	89 d8                	mov    %ebx,%eax
    1bcb:	f2 ae                	repnz scas %es:(%rdi),%al
    1bcd:	48 f7 d1             	not    %rcx
    1bd0:	4a 8d 14 21          	lea    (%rcx,%r12,1),%rdx
    1bd4:	48 89 ee             	mov    %rbp,%rsi
    1bd7:	44 89 ff             	mov    %r15d,%edi
    1bda:	e8 79 fd ff ff       	callq  1958 <writen>
    1bdf:	48 89 c2             	mov    %rax,%rdx
    1be2:	4c 89 e1             	mov    %r12,%rcx
    1be5:	48 89 ef             	mov    %rbp,%rdi
    1be8:	89 d8                	mov    %ebx,%eax
    1bea:	f2 ae                	repnz scas %es:(%rdi),%al
    1bec:	48 f7 d1             	not    %rcx
    1bef:	4c 01 e1             	add    %r12,%rcx
    1bf2:	48 39 ca             	cmp    %rcx,%rdx
    1bf5:	0f 82 cf 00 00 00    	jb     1cca <send_msg+0x312>
    1bfb:	44 89 ff             	mov    %r15d,%edi
    1bfe:	e8 5d f3 ff ff       	callq  f60 <close@plt>
    1c03:	48 81 c4 68 24 00 00 	add    $0x2468,%rsp
    1c0a:	5b                   	pop    %rbx
    1c0b:	5d                   	pop    %rbp
    1c0c:	41 5c                	pop    %r12
    1c0e:	41 5d                	pop    %r13
    1c10:	41 5e                	pop    %r14
    1c12:	41 5f                	pop    %r15
    1c14:	c3                   	retq   
    1c15:	48 8d 15 c6 09 00 00 	lea    0x9c6(%rip),%rdx        # 25e2 <array.3088+0x1e2>
    1c1c:	48 8d 35 1a 06 00 00 	lea    0x61a(%rip),%rsi        # 223d <_IO_stdin_used+0x1d>
    1c23:	48 8b 3d 76 1b 20 00 	mov    0x201b76(%rip),%rdi        # 2037a0 <stdout@@GLIBC_2.2.5>
    1c2a:	b8 00 00 00 00       	mov    $0x0,%eax
    1c2f:	e8 8c f3 ff ff       	callq  fc0 <fprintf@plt>
    1c34:	44 89 ff             	mov    %r15d,%edi
    1c37:	e8 24 f3 ff ff       	callq  f60 <close@plt>
    1c3c:	bf 01 00 00 00       	mov    $0x1,%edi
    1c41:	e8 1a f4 ff ff       	callq  1060 <exit@plt>
    1c46:	48 8d 15 09 0a 00 00 	lea    0xa09(%rip),%rdx        # 2656 <array.3088+0x256>
    1c4d:	48 8d 35 e9 05 00 00 	lea    0x5e9(%rip),%rsi        # 223d <_IO_stdin_used+0x1d>
    1c54:	48 8b 3d 45 1b 20 00 	mov    0x201b45(%rip),%rdi        # 2037a0 <stdout@@GLIBC_2.2.5>
    1c5b:	b8 00 00 00 00       	mov    $0x0,%eax
    1c60:	e8 5b f3 ff ff       	callq  fc0 <fprintf@plt>
    1c65:	45 85 ff             	test   %r15d,%r15d
    1c68:	74 08                	je     1c72 <send_msg+0x2ba>
    1c6a:	44 89 ff             	mov    %r15d,%edi
    1c6d:	e8 ee f2 ff ff       	callq  f60 <close@plt>
    1c72:	bf 01 00 00 00       	mov    $0x1,%edi
    1c77:	e8 e4 f3 ff ff       	callq  1060 <exit@plt>
    1c7c:	48 8d 15 6c 09 00 00 	lea    0x96c(%rip),%rdx        # 25ef <array.3088+0x1ef>
    1c83:	48 8d 35 b3 05 00 00 	lea    0x5b3(%rip),%rsi        # 223d <_IO_stdin_used+0x1d>
    1c8a:	48 8b 3d 0f 1b 20 00 	mov    0x201b0f(%rip),%rdi        # 2037a0 <stdout@@GLIBC_2.2.5>
    1c91:	b8 00 00 00 00       	mov    $0x0,%eax
    1c96:	e8 25 f3 ff ff       	callq  fc0 <fprintf@plt>
    1c9b:	45 85 ff             	test   %r15d,%r15d
    1c9e:	74 08                	je     1ca8 <send_msg+0x2f0>
    1ca0:	44 89 ff             	mov    %r15d,%edi
    1ca3:	e8 b8 f2 ff ff       	callq  f60 <close@plt>
    1ca8:	bf 01 00 00 00       	mov    $0x1,%edi
    1cad:	e8 ae f3 ff ff       	callq  1060 <exit@plt>
    1cb2:	c7 04 24 6e 6f 62 6f 	movl   $0x6f626f6e,(%rsp)
    1cb9:	66 c7 44 24 04 64 79 	movw   $0x7964,0x4(%rsp)
    1cc0:	c6 44 24 06 00       	movb   $0x0,0x6(%rsp)
    1cc5:	e9 0d fe ff ff       	jmpq   1ad7 <send_msg+0x11f>
    1cca:	48 8d 15 64 09 00 00 	lea    0x964(%rip),%rdx        # 2635 <array.3088+0x235>
    1cd1:	48 8d 35 65 05 00 00 	lea    0x565(%rip),%rsi        # 223d <_IO_stdin_used+0x1d>
    1cd8:	48 8b 3d c1 1a 20 00 	mov    0x201ac1(%rip),%rdi        # 2037a0 <stdout@@GLIBC_2.2.5>
    1cdf:	e8 dc f2 ff ff       	callq  fc0 <fprintf@plt>
    1ce4:	45 85 ff             	test   %r15d,%r15d
    1ce7:	74 08                	je     1cf1 <send_msg+0x339>
    1ce9:	44 89 ff             	mov    %r15d,%edi
    1cec:	e8 6f f2 ff ff       	callq  f60 <close@plt>
    1cf1:	bf 01 00 00 00       	mov    $0x1,%edi
    1cf6:	e8 65 f3 ff ff       	callq  1060 <exit@plt>

0000000000001cfb <send_msg_2>:
    1cfb:	41 57                	push   %r15
    1cfd:	41 56                	push   %r14
    1cff:	41 55                	push   %r13
    1d01:	41 54                	push   %r12
    1d03:	55                   	push   %rbp
    1d04:	53                   	push   %rbx
    1d05:	48 83 ec 68          	sub    $0x68,%rsp
    1d09:	89 fb                	mov    %edi,%ebx
    1d0b:	bf 00 00 00 00       	mov    $0x0,%edi
    1d10:	e8 3b f2 ff ff       	callq  f50 <dup@plt>
    1d15:	89 44 24 0c          	mov    %eax,0xc(%rsp)
    1d19:	83 f8 ff             	cmp    $0xffffffff,%eax
    1d1c:	0f 84 a6 01 00 00    	je     1ec8 <send_msg_2+0x1cd>
    1d22:	bf 00 00 00 00       	mov    $0x0,%edi
    1d27:	e8 34 f2 ff ff       	callq  f60 <close@plt>
    1d2c:	83 f8 ff             	cmp    $0xffffffff,%eax
    1d2f:	0f 84 a9 01 00 00    	je     1ede <send_msg_2+0x1e3>
    1d35:	e8 56 f2 ff ff       	callq  f90 <tmpfile@plt>
    1d3a:	48 89 c5             	mov    %rax,%rbp
    1d3d:	48 85 c0             	test   %rax,%rax
    1d40:	0f 84 ae 01 00 00    	je     1ef4 <send_msg_2+0x1f9>
    1d46:	48 89 c1             	mov    %rax,%rcx
    1d49:	ba 1b 00 00 00       	mov    $0x1b,%edx
    1d4e:	be 01 00 00 00       	mov    $0x1,%esi
    1d53:	48 8d 3d 2a 09 00 00 	lea    0x92a(%rip),%rdi        # 2684 <array.3088+0x284>
    1d5a:	e8 21 f3 ff ff       	callq  1080 <fwrite@plt>
    1d5f:	48 89 ee             	mov    %rbp,%rsi
    1d62:	bf 0a 00 00 00       	mov    $0xa,%edi
    1d67:	e8 04 f2 ff ff       	callq  f70 <fputc@plt>
    1d6c:	bf 00 00 00 00       	mov    $0x0,%edi
    1d71:	e8 aa f2 ff ff       	callq  1020 <cuserid@plt>
    1d76:	48 85 c0             	test   %rax,%rax
    1d79:	0f 84 8b 01 00 00    	je     1f0a <send_msg_2+0x20f>
    1d7f:	48 8d 7c 24 10       	lea    0x10(%rsp),%rdi
    1d84:	48 89 c6             	mov    %rax,%rsi
    1d87:	e8 54 f1 ff ff       	callq  ee0 <strcpy@plt>
    1d8c:	85 db                	test   %ebx,%ebx
    1d8e:	48 8d 05 44 08 00 00 	lea    0x844(%rip),%rax        # 25d9 <array.3088+0x1d9>
    1d95:	4c 8d 0d 35 08 00 00 	lea    0x835(%rip),%r9        # 25d1 <array.3088+0x1d1>
    1d9c:	4c 0f 44 c8          	cmove  %rax,%r9
    1da0:	48 83 ec 08          	sub    $0x8,%rsp
    1da4:	8b 05 12 1a 20 00    	mov    0x201a12(%rip),%eax        # 2037bc <num_input_strings>
    1daa:	50                   	push   %rax
    1dab:	4c 8d 44 24 20       	lea    0x20(%rsp),%r8
    1db0:	8b 0d aa 18 20 00    	mov    0x2018aa(%rip),%ecx        # 203660 <bomb_id>
    1db6:	48 8d 15 a3 14 20 00 	lea    0x2014a3(%rip),%rdx        # 203260 <lab_id>
    1dbd:	48 8d 35 39 08 00 00 	lea    0x839(%rip),%rsi        # 25fd <array.3088+0x1fd>
    1dc4:	48 89 ef             	mov    %rbp,%rdi
    1dc7:	b8 00 00 00 00       	mov    $0x0,%eax
    1dcc:	e8 ef f1 ff ff       	callq  fc0 <fprintf@plt>
    1dd1:	48 83 c4 10          	add    $0x10,%rsp
    1dd5:	83 3d e0 19 20 00 00 	cmpl   $0x0,0x2019e0(%rip)        # 2037bc <num_input_strings>
    1ddc:	7e 60                	jle    1e3e <send_msg_2+0x143>
    1dde:	bb 00 00 00 00       	mov    $0x0,%ebx
    1de3:	4c 8d 3d f6 19 20 00 	lea    0x2019f6(%rip),%r15        # 2037e0 <input_strings>
    1dea:	4c 8d 74 24 10       	lea    0x10(%rsp),%r14
    1def:	4c 8d 2d 6a 14 20 00 	lea    0x20146a(%rip),%r13        # 203260 <lab_id>
    1df6:	4c 8d 25 1c 08 00 00 	lea    0x81c(%rip),%r12        # 2619 <array.3088+0x219>
    1dfd:	48 63 c3             	movslq %ebx,%rax
    1e00:	48 8d 04 80          	lea    (%rax,%rax,4),%rax
    1e04:	48 c1 e0 04          	shl    $0x4,%rax
    1e08:	4c 01 f8             	add    %r15,%rax
    1e0b:	83 c3 01             	add    $0x1,%ebx
    1e0e:	48 83 ec 08          	sub    $0x8,%rsp
    1e12:	50                   	push   %rax
    1e13:	41 89 d9             	mov    %ebx,%r9d
    1e16:	4d 89 f0             	mov    %r14,%r8
    1e19:	8b 0d 41 18 20 00    	mov    0x201841(%rip),%ecx        # 203660 <bomb_id>
    1e1f:	4c 89 ea             	mov    %r13,%rdx
    1e22:	4c 89 e6             	mov    %r12,%rsi
    1e25:	48 89 ef             	mov    %rbp,%rdi
    1e28:	b8 00 00 00 00       	mov    $0x0,%eax
    1e2d:	e8 8e f1 ff ff       	callq  fc0 <fprintf@plt>
    1e32:	48 83 c4 10          	add    $0x10,%rsp
    1e36:	39 1d 80 19 20 00    	cmp    %ebx,0x201980(%rip)        # 2037bc <num_input_strings>
    1e3c:	7f bf                	jg     1dfd <send_msg_2+0x102>
    1e3e:	48 89 ef             	mov    %rbp,%rdi
    1e41:	e8 fa f0 ff ff       	callq  f40 <rewind@plt>
    1e46:	4c 8d 05 53 08 00 00 	lea    0x853(%rip),%r8        # 26a0 <array.3088+0x2a0>
    1e4d:	48 8d 0d 56 08 00 00 	lea    0x856(%rip),%rcx        # 26aa <array.3088+0x2aa>
    1e54:	48 8d 15 57 08 00 00 	lea    0x857(%rip),%rdx        # 26b2 <array.3088+0x2b2>
    1e5b:	48 8d 35 67 08 00 00 	lea    0x867(%rip),%rsi        # 26c9 <array.3088+0x2c9>
    1e62:	48 8d 3d b7 1f 20 00 	lea    0x201fb7(%rip),%rdi        # 203e20 <scratch>
    1e69:	b8 00 00 00 00       	mov    $0x0,%eax
    1e6e:	e8 dd f1 ff ff       	callq  1050 <sprintf@plt>
    1e73:	48 8d 3d a6 1f 20 00 	lea    0x201fa6(%rip),%rdi        # 203e20 <scratch>
    1e7a:	e8 a1 f0 ff ff       	callq  f20 <system@plt>
    1e7f:	85 c0                	test   %eax,%eax
    1e81:	0f 85 9c 00 00 00    	jne    1f23 <send_msg_2+0x228>
    1e87:	48 89 ef             	mov    %rbp,%rdi
    1e8a:	e8 81 f0 ff ff       	callq  f10 <fclose@plt>
    1e8f:	85 c0                	test   %eax,%eax
    1e91:	0f 85 a2 00 00 00    	jne    1f39 <send_msg_2+0x23e>
    1e97:	8b 7c 24 0c          	mov    0xc(%rsp),%edi
    1e9b:	e8 b0 f0 ff ff       	callq  f50 <dup@plt>
    1ea0:	85 c0                	test   %eax,%eax
    1ea2:	0f 85 a7 00 00 00    	jne    1f4f <send_msg_2+0x254>
    1ea8:	8b 7c 24 0c          	mov    0xc(%rsp),%edi
    1eac:	e8 af f0 ff ff       	callq  f60 <close@plt>
    1eb1:	85 c0                	test   %eax,%eax
    1eb3:	0f 85 ac 00 00 00    	jne    1f65 <send_msg_2+0x26a>
    1eb9:	48 83 c4 68          	add    $0x68,%rsp
    1ebd:	5b                   	pop    %rbx
    1ebe:	5d                   	pop    %rbp
    1ebf:	41 5c                	pop    %r12
    1ec1:	41 5d                	pop    %r13
    1ec3:	41 5e                	pop    %r14
    1ec5:	41 5f                	pop    %r15
    1ec7:	c3                   	retq   
    1ec8:	48 8d 3d 79 07 00 00 	lea    0x779(%rip),%rdi        # 2648 <array.3088+0x248>
    1ecf:	e8 1c f0 ff ff       	callq  ef0 <puts@plt>
    1ed4:	bf 08 00 00 00       	mov    $0x8,%edi
    1ed9:	e8 82 f1 ff ff       	callq  1060 <exit@plt>
    1ede:	48 8d 3d 77 07 00 00 	lea    0x777(%rip),%rdi        # 265c <array.3088+0x25c>
    1ee5:	e8 06 f0 ff ff       	callq  ef0 <puts@plt>
    1eea:	bf 08 00 00 00       	mov    $0x8,%edi
    1eef:	e8 6c f1 ff ff       	callq  1060 <exit@plt>
    1ef4:	48 8d 3d 74 07 00 00 	lea    0x774(%rip),%rdi        # 266f <array.3088+0x26f>
    1efb:	e8 f0 ef ff ff       	callq  ef0 <puts@plt>
    1f00:	bf 08 00 00 00       	mov    $0x8,%edi
    1f05:	e8 56 f1 ff ff       	callq  1060 <exit@plt>
    1f0a:	c7 44 24 10 6e 6f 62 	movl   $0x6f626f6e,0x10(%rsp)
    1f11:	6f 
    1f12:	66 c7 44 24 14 64 79 	movw   $0x7964,0x14(%rsp)
    1f19:	c6 44 24 16 00       	movb   $0x0,0x16(%rsp)
    1f1e:	e9 69 fe ff ff       	jmpq   1d8c <send_msg_2+0x91>
    1f23:	48 8d 3d a8 07 00 00 	lea    0x7a8(%rip),%rdi        # 26d2 <array.3088+0x2d2>
    1f2a:	e8 c1 ef ff ff       	callq  ef0 <puts@plt>
    1f2f:	bf 08 00 00 00       	mov    $0x8,%edi
    1f34:	e8 27 f1 ff ff       	callq  1060 <exit@plt>
    1f39:	48 8d 3d ac 07 00 00 	lea    0x7ac(%rip),%rdi        # 26ec <array.3088+0x2ec>
    1f40:	e8 ab ef ff ff       	callq  ef0 <puts@plt>
    1f45:	bf 08 00 00 00       	mov    $0x8,%edi
    1f4a:	e8 11 f1 ff ff       	callq  1060 <exit@plt>
    1f4f:	48 8d 3d af 07 00 00 	lea    0x7af(%rip),%rdi        # 2705 <array.3088+0x305>
    1f56:	e8 95 ef ff ff       	callq  ef0 <puts@plt>
    1f5b:	bf 08 00 00 00       	mov    $0x8,%edi
    1f60:	e8 fb f0 ff ff       	callq  1060 <exit@plt>
    1f65:	48 8d 3d b4 07 00 00 	lea    0x7b4(%rip),%rdi        # 2720 <array.3088+0x320>
    1f6c:	e8 7f ef ff ff       	callq  ef0 <puts@plt>
    1f71:	bf 08 00 00 00       	mov    $0x8,%edi
    1f76:	e8 e5 f0 ff ff       	callq  1060 <exit@plt>

0000000000001f7b <explode_bomb>:
    1f7b:	48 83 ec 08          	sub    $0x8,%rsp
    1f7f:	48 8d 3d b1 07 00 00 	lea    0x7b1(%rip),%rdi        # 2737 <array.3088+0x337>
    1f86:	e8 65 ef ff ff       	callq  ef0 <puts@plt>
    1f8b:	48 8d 3d ae 07 00 00 	lea    0x7ae(%rip),%rdi        # 2740 <array.3088+0x340>
    1f92:	e8 59 ef ff ff       	callq  ef0 <puts@plt>
    1f97:	bf 00 00 00 00       	mov    $0x0,%edi
    1f9c:	e8 17 fa ff ff       	callq  19b8 <send_msg>
    1fa1:	48 8d 3d d0 04 00 00 	lea    0x4d0(%rip),%rdi        # 2478 <array.3088+0x78>
    1fa8:	e8 43 ef ff ff       	callq  ef0 <puts@plt>
    1fad:	bf 08 00 00 00       	mov    $0x8,%edi
    1fb2:	e8 a9 f0 ff ff       	callq  1060 <exit@plt>

0000000000001fb7 <read_six_numbers>:
    1fb7:	48 83 ec 08          	sub    $0x8,%rsp
    1fbb:	48 89 f2             	mov    %rsi,%rdx
    1fbe:	48 8d 4e 04          	lea    0x4(%rsi),%rcx
    1fc2:	48 8d 46 14          	lea    0x14(%rsi),%rax
    1fc6:	50                   	push   %rax
    1fc7:	48 8d 46 10          	lea    0x10(%rsi),%rax
    1fcb:	50                   	push   %rax
    1fcc:	4c 8d 4e 0c          	lea    0xc(%rsi),%r9
    1fd0:	4c 8d 46 08          	lea    0x8(%rsi),%r8
    1fd4:	48 8d 35 7c 07 00 00 	lea    0x77c(%rip),%rsi        # 2757 <array.3088+0x357>
    1fdb:	b8 00 00 00 00       	mov    $0x0,%eax
    1fe0:	e8 1b f0 ff ff       	callq  1000 <__isoc99_sscanf@plt>
    1fe5:	48 83 c4 10          	add    $0x10,%rsp
    1fe9:	83 f8 05             	cmp    $0x5,%eax
    1fec:	7e 05                	jle    1ff3 <read_six_numbers+0x3c>
    1fee:	48 83 c4 08          	add    $0x8,%rsp
    1ff2:	c3                   	retq   
    1ff3:	e8 83 ff ff ff       	callq  1f7b <explode_bomb>

0000000000001ff8 <read_line>:
    1ff8:	48 83 ec 08          	sub    $0x8,%rsp
    1ffc:	b8 00 00 00 00       	mov    $0x0,%eax
    2001:	e8 04 f9 ff ff       	callq  190a <skip>
    2006:	48 85 c0             	test   %rax,%rax
    2009:	74 6f                	je     207a <read_line+0x82>
    200b:	8b 35 ab 17 20 00    	mov    0x2017ab(%rip),%esi        # 2037bc <num_input_strings>
    2011:	48 63 c6             	movslq %esi,%rax
    2014:	48 8d 14 80          	lea    (%rax,%rax,4),%rdx
    2018:	48 c1 e2 04          	shl    $0x4,%rdx
    201c:	48 8d 05 bd 17 20 00 	lea    0x2017bd(%rip),%rax        # 2037e0 <input_strings>
    2023:	48 01 c2             	add    %rax,%rdx
    2026:	b8 00 00 00 00       	mov    $0x0,%eax
    202b:	48 c7 c1 ff ff ff ff 	mov    $0xffffffffffffffff,%rcx
    2032:	48 89 d7             	mov    %rdx,%rdi
    2035:	f2 ae                	repnz scas %es:(%rdi),%al
    2037:	48 f7 d1             	not    %rcx
    203a:	48 83 e9 01          	sub    $0x1,%rcx
    203e:	83 f9 4f             	cmp    $0x4f,%ecx
    2041:	0f 84 a1 00 00 00    	je     20e8 <read_line+0xf0>
    2047:	83 e9 01             	sub    $0x1,%ecx
    204a:	48 63 c9             	movslq %ecx,%rcx
    204d:	48 63 c6             	movslq %esi,%rax
    2050:	48 8d 04 80          	lea    (%rax,%rax,4),%rax
    2054:	48 c1 e0 04          	shl    $0x4,%rax
    2058:	48 89 c7             	mov    %rax,%rdi
    205b:	48 8d 05 7e 17 20 00 	lea    0x20177e(%rip),%rax        # 2037e0 <input_strings>
    2062:	48 01 f8             	add    %rdi,%rax
    2065:	c6 04 08 00          	movb   $0x0,(%rax,%rcx,1)
    2069:	83 c6 01             	add    $0x1,%esi
    206c:	89 35 4a 17 20 00    	mov    %esi,0x20174a(%rip)        # 2037bc <num_input_strings>
    2072:	48 89 d0             	mov    %rdx,%rax
    2075:	48 83 c4 08          	add    $0x8,%rsp
    2079:	c3                   	retq   
    207a:	48 8b 05 2f 17 20 00 	mov    0x20172f(%rip),%rax        # 2037b0 <stdin@@GLIBC_2.2.5>
    2081:	48 39 05 38 17 20 00 	cmp    %rax,0x201738(%rip)        # 2037c0 <infile>
    2088:	74 43                	je     20cd <read_line+0xd5>
    208a:	48 8d 3d f6 06 00 00 	lea    0x6f6(%rip),%rdi        # 2787 <array.3088+0x387>
    2091:	e8 2a ee ff ff       	callq  ec0 <getenv@plt>
    2096:	48 85 c0             	test   %rax,%rax
    2099:	75 43                	jne    20de <read_line+0xe6>
    209b:	48 8b 05 0e 17 20 00 	mov    0x20170e(%rip),%rax        # 2037b0 <stdin@@GLIBC_2.2.5>
    20a2:	48 89 05 17 17 20 00 	mov    %rax,0x201717(%rip)        # 2037c0 <infile>
    20a9:	b8 00 00 00 00       	mov    $0x0,%eax
    20ae:	e8 57 f8 ff ff       	callq  190a <skip>
    20b3:	48 85 c0             	test   %rax,%rax
    20b6:	0f 85 4f ff ff ff    	jne    200b <read_line+0x13>
    20bc:	48 8d 3d a6 06 00 00 	lea    0x6a6(%rip),%rdi        # 2769 <array.3088+0x369>
    20c3:	e8 28 ee ff ff       	callq  ef0 <puts@plt>
    20c8:	e8 ae fe ff ff       	callq  1f7b <explode_bomb>
    20cd:	48 8d 3d 95 06 00 00 	lea    0x695(%rip),%rdi        # 2769 <array.3088+0x369>
    20d4:	e8 17 ee ff ff       	callq  ef0 <puts@plt>
    20d9:	e8 9d fe ff ff       	callq  1f7b <explode_bomb>
    20de:	bf 00 00 00 00       	mov    $0x0,%edi
    20e3:	e8 78 ef ff ff       	callq  1060 <exit@plt>
    20e8:	48 8d 3d a3 06 00 00 	lea    0x6a3(%rip),%rdi        # 2792 <array.3088+0x392>
    20ef:	e8 fc ed ff ff       	callq  ef0 <puts@plt>
    20f4:	e8 82 fe ff ff       	callq  1f7b <explode_bomb>

00000000000020f9 <phase_defused>:
    20f9:	48 83 ec 68          	sub    $0x68,%rsp
    20fd:	bf 01 00 00 00       	mov    $0x1,%edi
    2102:	e8 b1 f8 ff ff       	callq  19b8 <send_msg>
    2107:	83 3d ae 16 20 00 06 	cmpl   $0x6,0x2016ae(%rip)        # 2037bc <num_input_strings>
    210e:	74 05                	je     2115 <phase_defused+0x1c>
    2110:	48 83 c4 68          	add    $0x68,%rsp
    2114:	c3                   	retq   
    2115:	48 8d 4c 24 10       	lea    0x10(%rsp),%rcx
    211a:	48 8d 54 24 0c       	lea    0xc(%rsp),%rdx
    211f:	48 8d 35 87 06 00 00 	lea    0x687(%rip),%rsi        # 27ad <array.3088+0x3ad>
    2126:	48 8d 3d a3 17 20 00 	lea    0x2017a3(%rip),%rdi        # 2038d0 <input_strings+0xf0>
    212d:	b8 00 00 00 00       	mov    $0x0,%eax
    2132:	e8 c9 ee ff ff       	callq  1000 <__isoc99_sscanf@plt>
    2137:	83 f8 02             	cmp    $0x2,%eax
    213a:	74 1a                	je     2156 <phase_defused+0x5d>
    213c:	48 8d 3d bd 03 00 00 	lea    0x3bd(%rip),%rdi        # 2500 <array.3088+0x100>
    2143:	e8 a8 ed ff ff       	callq  ef0 <puts@plt>
    2148:	48 8d 3d e1 03 00 00 	lea    0x3e1(%rip),%rdi        # 2530 <array.3088+0x130>
    214f:	e8 9c ed ff ff       	callq  ef0 <puts@plt>
    2154:	eb ba                	jmp    2110 <phase_defused+0x17>
    2156:	48 8d 7c 24 10       	lea    0x10(%rsp),%rdi
    215b:	48 8d 35 51 06 00 00 	lea    0x651(%rip),%rsi        # 27b3 <array.3088+0x3b3>
    2162:	e8 04 f6 ff ff       	callq  176b <strings_not_equal>
    2167:	85 c0                	test   %eax,%eax
    2169:	75 d1                	jne    213c <phase_defused+0x43>
    216b:	48 8d 3d 2e 03 00 00 	lea    0x32e(%rip),%rdi        # 24a0 <array.3088+0xa0>
    2172:	e8 79 ed ff ff       	callq  ef0 <puts@plt>
    2177:	48 8d 3d 4a 03 00 00 	lea    0x34a(%rip),%rdi        # 24c8 <array.3088+0xc8>
    217e:	e8 6d ed ff ff       	callq  ef0 <puts@plt>
    2183:	b8 00 00 00 00       	mov    $0x0,%eax
    2188:	e8 ef f4 ff ff       	callq  167c <secret_phase>
    218d:	eb ad                	jmp    213c <phase_defused+0x43>
    218f:	90                   	nop

0000000000002190 <__libc_csu_init>:
    2190:	41 57                	push   %r15
    2192:	41 56                	push   %r14
    2194:	41 89 ff             	mov    %edi,%r15d
    2197:	41 55                	push   %r13
    2199:	41 54                	push   %r12
    219b:	4c 8d 25 36 0c 20 00 	lea    0x200c36(%rip),%r12        # 202dd8 <__frame_dummy_init_array_entry>
    21a2:	55                   	push   %rbp
    21a3:	48 8d 2d 36 0c 20 00 	lea    0x200c36(%rip),%rbp        # 202de0 <__init_array_end>
    21aa:	53                   	push   %rbx
    21ab:	49 89 f6             	mov    %rsi,%r14
    21ae:	49 89 d5             	mov    %rdx,%r13
    21b1:	4c 29 e5             	sub    %r12,%rbp
    21b4:	48 83 ec 08          	sub    $0x8,%rsp
    21b8:	48 c1 fd 03          	sar    $0x3,%rbp
    21bc:	e8 d7 ec ff ff       	callq  e98 <_init>
    21c1:	48 85 ed             	test   %rbp,%rbp
    21c4:	74 20                	je     21e6 <__libc_csu_init+0x56>
    21c6:	31 db                	xor    %ebx,%ebx
    21c8:	0f 1f 84 00 00 00 00 	nopl   0x0(%rax,%rax,1)
    21cf:	00 
    21d0:	4c 89 ea             	mov    %r13,%rdx
    21d3:	4c 89 f6             	mov    %r14,%rsi
    21d6:	44 89 ff             	mov    %r15d,%edi
    21d9:	41 ff 14 dc          	callq  *(%r12,%rbx,8)
    21dd:	48 83 c3 01          	add    $0x1,%rbx
    21e1:	48 39 dd             	cmp    %rbx,%rbp
    21e4:	75 ea                	jne    21d0 <__libc_csu_init+0x40>
    21e6:	48 83 c4 08          	add    $0x8,%rsp
    21ea:	5b                   	pop    %rbx
    21eb:	5d                   	pop    %rbp
    21ec:	41 5c                	pop    %r12
    21ee:	41 5d                	pop    %r13
    21f0:	41 5e                	pop    %r14
    21f2:	41 5f                	pop    %r15
    21f4:	c3                   	retq   
    21f5:	90                   	nop
    21f6:	66 2e 0f 1f 84 00 00 	nopw   %cs:0x0(%rax,%rax,1)
    21fd:	00 00 00 

0000000000002200 <__libc_csu_fini>:
    2200:	f3 c3                	repz retq 

Disassembly of section .fini:

0000000000002204 <_fini>:
    2204:	48 83 ec 08          	sub    $0x8,%rsp
    2208:	48 83 c4 08          	add    $0x8,%rsp
    220c:	c3                   	retq   
