
rtarget：     文件格式 elf64-x86-64


Disassembly of section .init:

0000000000400bb0 <_init>:
  400bb0:	48 83 ec 08          	sub    $0x8,%rsp
  400bb4:	48 8b 05 3d 44 20 00 	mov    0x20443d(%rip),%rax        # 604ff8 <__gmon_start__>
  400bbb:	48 85 c0             	test   %rax,%rax
  400bbe:	74 02                	je     400bc2 <_init+0x12>
  400bc0:	ff d0                	callq  *%rax
  400bc2:	48 83 c4 08          	add    $0x8,%rsp
  400bc6:	c3                   	retq   

Disassembly of section .plt:

0000000000400bd0 <.plt>:
  400bd0:	ff 35 32 44 20 00    	pushq  0x204432(%rip)        # 605008 <_GLOBAL_OFFSET_TABLE_+0x8>
  400bd6:	ff 25 34 44 20 00    	jmpq   *0x204434(%rip)        # 605010 <_GLOBAL_OFFSET_TABLE_+0x10>
  400bdc:	0f 1f 40 00          	nopl   0x0(%rax)

0000000000400be0 <strcasecmp@plt>:
  400be0:	ff 25 32 44 20 00    	jmpq   *0x204432(%rip)        # 605018 <strcasecmp@GLIBC_2.2.5>
  400be6:	68 00 00 00 00       	pushq  $0x0
  400beb:	e9 e0 ff ff ff       	jmpq   400bd0 <.plt>

0000000000400bf0 <__errno_location@plt>:
  400bf0:	ff 25 2a 44 20 00    	jmpq   *0x20442a(%rip)        # 605020 <__errno_location@GLIBC_2.2.5>
  400bf6:	68 01 00 00 00       	pushq  $0x1
  400bfb:	e9 d0 ff ff ff       	jmpq   400bd0 <.plt>

0000000000400c00 <srandom@plt>:
  400c00:	ff 25 22 44 20 00    	jmpq   *0x204422(%rip)        # 605028 <srandom@GLIBC_2.2.5>
  400c06:	68 02 00 00 00       	pushq  $0x2
  400c0b:	e9 c0 ff ff ff       	jmpq   400bd0 <.plt>

0000000000400c10 <strncmp@plt>:
  400c10:	ff 25 1a 44 20 00    	jmpq   *0x20441a(%rip)        # 605030 <strncmp@GLIBC_2.2.5>
  400c16:	68 03 00 00 00       	pushq  $0x3
  400c1b:	e9 b0 ff ff ff       	jmpq   400bd0 <.plt>

0000000000400c20 <strcpy@plt>:
  400c20:	ff 25 12 44 20 00    	jmpq   *0x204412(%rip)        # 605038 <strcpy@GLIBC_2.2.5>
  400c26:	68 04 00 00 00       	pushq  $0x4
  400c2b:	e9 a0 ff ff ff       	jmpq   400bd0 <.plt>

0000000000400c30 <puts@plt>:
  400c30:	ff 25 0a 44 20 00    	jmpq   *0x20440a(%rip)        # 605040 <puts@GLIBC_2.2.5>
  400c36:	68 05 00 00 00       	pushq  $0x5
  400c3b:	e9 90 ff ff ff       	jmpq   400bd0 <.plt>

0000000000400c40 <write@plt>:
  400c40:	ff 25 02 44 20 00    	jmpq   *0x204402(%rip)        # 605048 <write@GLIBC_2.2.5>
  400c46:	68 06 00 00 00       	pushq  $0x6
  400c4b:	e9 80 ff ff ff       	jmpq   400bd0 <.plt>

0000000000400c50 <mmap@plt>:
  400c50:	ff 25 fa 43 20 00    	jmpq   *0x2043fa(%rip)        # 605050 <mmap@GLIBC_2.2.5>
  400c56:	68 07 00 00 00       	pushq  $0x7
  400c5b:	e9 70 ff ff ff       	jmpq   400bd0 <.plt>

0000000000400c60 <printf@plt>:
  400c60:	ff 25 f2 43 20 00    	jmpq   *0x2043f2(%rip)        # 605058 <printf@GLIBC_2.2.5>
  400c66:	68 08 00 00 00       	pushq  $0x8
  400c6b:	e9 60 ff ff ff       	jmpq   400bd0 <.plt>

0000000000400c70 <memset@plt>:
  400c70:	ff 25 ea 43 20 00    	jmpq   *0x2043ea(%rip)        # 605060 <memset@GLIBC_2.2.5>
  400c76:	68 09 00 00 00       	pushq  $0x9
  400c7b:	e9 50 ff ff ff       	jmpq   400bd0 <.plt>

0000000000400c80 <alarm@plt>:
  400c80:	ff 25 e2 43 20 00    	jmpq   *0x2043e2(%rip)        # 605068 <alarm@GLIBC_2.2.5>
  400c86:	68 0a 00 00 00       	pushq  $0xa
  400c8b:	e9 40 ff ff ff       	jmpq   400bd0 <.plt>

0000000000400c90 <close@plt>:
  400c90:	ff 25 da 43 20 00    	jmpq   *0x2043da(%rip)        # 605070 <close@GLIBC_2.2.5>
  400c96:	68 0b 00 00 00       	pushq  $0xb
  400c9b:	e9 30 ff ff ff       	jmpq   400bd0 <.plt>

0000000000400ca0 <read@plt>:
  400ca0:	ff 25 d2 43 20 00    	jmpq   *0x2043d2(%rip)        # 605078 <read@GLIBC_2.2.5>
  400ca6:	68 0c 00 00 00       	pushq  $0xc
  400cab:	e9 20 ff ff ff       	jmpq   400bd0 <.plt>

0000000000400cb0 <signal@plt>:
  400cb0:	ff 25 ca 43 20 00    	jmpq   *0x2043ca(%rip)        # 605080 <signal@GLIBC_2.2.5>
  400cb6:	68 0d 00 00 00       	pushq  $0xd
  400cbb:	e9 10 ff ff ff       	jmpq   400bd0 <.plt>

0000000000400cc0 <gethostbyname@plt>:
  400cc0:	ff 25 c2 43 20 00    	jmpq   *0x2043c2(%rip)        # 605088 <gethostbyname@GLIBC_2.2.5>
  400cc6:	68 0e 00 00 00       	pushq  $0xe
  400ccb:	e9 00 ff ff ff       	jmpq   400bd0 <.plt>

0000000000400cd0 <fprintf@plt>:
  400cd0:	ff 25 ba 43 20 00    	jmpq   *0x2043ba(%rip)        # 605090 <fprintf@GLIBC_2.2.5>
  400cd6:	68 0f 00 00 00       	pushq  $0xf
  400cdb:	e9 f0 fe ff ff       	jmpq   400bd0 <.plt>

0000000000400ce0 <strtol@plt>:
  400ce0:	ff 25 b2 43 20 00    	jmpq   *0x2043b2(%rip)        # 605098 <strtol@GLIBC_2.2.5>
  400ce6:	68 10 00 00 00       	pushq  $0x10
  400ceb:	e9 e0 fe ff ff       	jmpq   400bd0 <.plt>

0000000000400cf0 <memcpy@plt>:
  400cf0:	ff 25 aa 43 20 00    	jmpq   *0x2043aa(%rip)        # 6050a0 <memcpy@GLIBC_2.14>
  400cf6:	68 11 00 00 00       	pushq  $0x11
  400cfb:	e9 d0 fe ff ff       	jmpq   400bd0 <.plt>

0000000000400d00 <time@plt>:
  400d00:	ff 25 a2 43 20 00    	jmpq   *0x2043a2(%rip)        # 6050a8 <time@GLIBC_2.2.5>
  400d06:	68 12 00 00 00       	pushq  $0x12
  400d0b:	e9 c0 fe ff ff       	jmpq   400bd0 <.plt>

0000000000400d10 <random@plt>:
  400d10:	ff 25 9a 43 20 00    	jmpq   *0x20439a(%rip)        # 6050b0 <random@GLIBC_2.2.5>
  400d16:	68 13 00 00 00       	pushq  $0x13
  400d1b:	e9 b0 fe ff ff       	jmpq   400bd0 <.plt>

0000000000400d20 <_IO_getc@plt>:
  400d20:	ff 25 92 43 20 00    	jmpq   *0x204392(%rip)        # 6050b8 <_IO_getc@GLIBC_2.2.5>
  400d26:	68 14 00 00 00       	pushq  $0x14
  400d2b:	e9 a0 fe ff ff       	jmpq   400bd0 <.plt>

0000000000400d30 <__isoc99_sscanf@plt>:
  400d30:	ff 25 8a 43 20 00    	jmpq   *0x20438a(%rip)        # 6050c0 <__isoc99_sscanf@GLIBC_2.7>
  400d36:	68 15 00 00 00       	pushq  $0x15
  400d3b:	e9 90 fe ff ff       	jmpq   400bd0 <.plt>

0000000000400d40 <munmap@plt>:
  400d40:	ff 25 82 43 20 00    	jmpq   *0x204382(%rip)        # 6050c8 <munmap@GLIBC_2.2.5>
  400d46:	68 16 00 00 00       	pushq  $0x16
  400d4b:	e9 80 fe ff ff       	jmpq   400bd0 <.plt>

0000000000400d50 <bcopy@plt>:
  400d50:	ff 25 7a 43 20 00    	jmpq   *0x20437a(%rip)        # 6050d0 <bcopy@GLIBC_2.2.5>
  400d56:	68 17 00 00 00       	pushq  $0x17
  400d5b:	e9 70 fe ff ff       	jmpq   400bd0 <.plt>

0000000000400d60 <fopen@plt>:
  400d60:	ff 25 72 43 20 00    	jmpq   *0x204372(%rip)        # 6050d8 <fopen@GLIBC_2.2.5>
  400d66:	68 18 00 00 00       	pushq  $0x18
  400d6b:	e9 60 fe ff ff       	jmpq   400bd0 <.plt>

0000000000400d70 <getopt@plt>:
  400d70:	ff 25 6a 43 20 00    	jmpq   *0x20436a(%rip)        # 6050e0 <getopt@GLIBC_2.2.5>
  400d76:	68 19 00 00 00       	pushq  $0x19
  400d7b:	e9 50 fe ff ff       	jmpq   400bd0 <.plt>

0000000000400d80 <strtoul@plt>:
  400d80:	ff 25 62 43 20 00    	jmpq   *0x204362(%rip)        # 6050e8 <strtoul@GLIBC_2.2.5>
  400d86:	68 1a 00 00 00       	pushq  $0x1a
  400d8b:	e9 40 fe ff ff       	jmpq   400bd0 <.plt>

0000000000400d90 <gethostname@plt>:
  400d90:	ff 25 5a 43 20 00    	jmpq   *0x20435a(%rip)        # 6050f0 <gethostname@GLIBC_2.2.5>
  400d96:	68 1b 00 00 00       	pushq  $0x1b
  400d9b:	e9 30 fe ff ff       	jmpq   400bd0 <.plt>

0000000000400da0 <sprintf@plt>:
  400da0:	ff 25 52 43 20 00    	jmpq   *0x204352(%rip)        # 6050f8 <sprintf@GLIBC_2.2.5>
  400da6:	68 1c 00 00 00       	pushq  $0x1c
  400dab:	e9 20 fe ff ff       	jmpq   400bd0 <.plt>

0000000000400db0 <exit@plt>:
  400db0:	ff 25 4a 43 20 00    	jmpq   *0x20434a(%rip)        # 605100 <exit@GLIBC_2.2.5>
  400db6:	68 1d 00 00 00       	pushq  $0x1d
  400dbb:	e9 10 fe ff ff       	jmpq   400bd0 <.plt>

0000000000400dc0 <connect@plt>:
  400dc0:	ff 25 42 43 20 00    	jmpq   *0x204342(%rip)        # 605108 <connect@GLIBC_2.2.5>
  400dc6:	68 1e 00 00 00       	pushq  $0x1e
  400dcb:	e9 00 fe ff ff       	jmpq   400bd0 <.plt>

0000000000400dd0 <socket@plt>:
  400dd0:	ff 25 3a 43 20 00    	jmpq   *0x20433a(%rip)        # 605110 <socket@GLIBC_2.2.5>
  400dd6:	68 1f 00 00 00       	pushq  $0x1f
  400ddb:	e9 f0 fd ff ff       	jmpq   400bd0 <.plt>

Disassembly of section .text:

0000000000400de0 <_start>:
  400de0:	31 ed                	xor    %ebp,%ebp
  400de2:	49 89 d1             	mov    %rdx,%r9
  400de5:	5e                   	pop    %rsi
  400de6:	48 89 e2             	mov    %rsp,%rdx
  400de9:	48 83 e4 f0          	and    $0xfffffffffffffff0,%rsp
  400ded:	50                   	push   %rax
  400dee:	54                   	push   %rsp
  400def:	49 c7 c0 20 2e 40 00 	mov    $0x402e20,%r8
  400df6:	48 c7 c1 b0 2d 40 00 	mov    $0x402db0,%rcx
  400dfd:	48 c7 c7 8d 10 40 00 	mov    $0x40108d,%rdi
  400e04:	ff 15 e6 41 20 00    	callq  *0x2041e6(%rip)        # 604ff0 <__libc_start_main@GLIBC_2.2.5>
  400e0a:	f4                   	hlt    
  400e0b:	0f 1f 44 00 00       	nopl   0x0(%rax,%rax,1)

0000000000400e10 <deregister_tm_clones>:
  400e10:	b8 97 54 60 00       	mov    $0x605497,%eax
  400e15:	55                   	push   %rbp
  400e16:	48 2d 90 54 60 00    	sub    $0x605490,%rax
  400e1c:	48 83 f8 0e          	cmp    $0xe,%rax
  400e20:	48 89 e5             	mov    %rsp,%rbp
  400e23:	76 1b                	jbe    400e40 <deregister_tm_clones+0x30>
  400e25:	b8 00 00 00 00       	mov    $0x0,%eax
  400e2a:	48 85 c0             	test   %rax,%rax
  400e2d:	74 11                	je     400e40 <deregister_tm_clones+0x30>
  400e2f:	5d                   	pop    %rbp
  400e30:	bf 90 54 60 00       	mov    $0x605490,%edi
  400e35:	ff e0                	jmpq   *%rax
  400e37:	66 0f 1f 84 00 00 00 	nopw   0x0(%rax,%rax,1)
  400e3e:	00 00 
  400e40:	5d                   	pop    %rbp
  400e41:	c3                   	retq   
  400e42:	0f 1f 40 00          	nopl   0x0(%rax)
  400e46:	66 2e 0f 1f 84 00 00 	nopw   %cs:0x0(%rax,%rax,1)
  400e4d:	00 00 00 

0000000000400e50 <register_tm_clones>:
  400e50:	be 90 54 60 00       	mov    $0x605490,%esi
  400e55:	55                   	push   %rbp
  400e56:	48 81 ee 90 54 60 00 	sub    $0x605490,%rsi
  400e5d:	48 c1 fe 03          	sar    $0x3,%rsi
  400e61:	48 89 e5             	mov    %rsp,%rbp
  400e64:	48 89 f0             	mov    %rsi,%rax
  400e67:	48 c1 e8 3f          	shr    $0x3f,%rax
  400e6b:	48 01 c6             	add    %rax,%rsi
  400e6e:	48 d1 fe             	sar    %rsi
  400e71:	74 15                	je     400e88 <register_tm_clones+0x38>
  400e73:	b8 00 00 00 00       	mov    $0x0,%eax
  400e78:	48 85 c0             	test   %rax,%rax
  400e7b:	74 0b                	je     400e88 <register_tm_clones+0x38>
  400e7d:	5d                   	pop    %rbp
  400e7e:	bf 90 54 60 00       	mov    $0x605490,%edi
  400e83:	ff e0                	jmpq   *%rax
  400e85:	0f 1f 00             	nopl   (%rax)
  400e88:	5d                   	pop    %rbp
  400e89:	c3                   	retq   
  400e8a:	66 0f 1f 44 00 00    	nopw   0x0(%rax,%rax,1)

0000000000400e90 <__do_global_dtors_aux>:
  400e90:	80 3d 31 46 20 00 00 	cmpb   $0x0,0x204631(%rip)        # 6054c8 <completed.6972>
  400e97:	75 11                	jne    400eaa <__do_global_dtors_aux+0x1a>
  400e99:	55                   	push   %rbp
  400e9a:	48 89 e5             	mov    %rsp,%rbp
  400e9d:	e8 6e ff ff ff       	callq  400e10 <deregister_tm_clones>
  400ea2:	5d                   	pop    %rbp
  400ea3:	c6 05 1e 46 20 00 01 	movb   $0x1,0x20461e(%rip)        # 6054c8 <completed.6972>
  400eaa:	f3 c3                	repz retq 
  400eac:	0f 1f 40 00          	nopl   0x0(%rax)

0000000000400eb0 <frame_dummy>:
  400eb0:	bf 18 4e 60 00       	mov    $0x604e18,%edi
  400eb5:	48 83 3f 00          	cmpq   $0x0,(%rdi)
  400eb9:	75 05                	jne    400ec0 <frame_dummy+0x10>
  400ebb:	eb 93                	jmp    400e50 <register_tm_clones>
  400ebd:	0f 1f 00             	nopl   (%rax)
  400ec0:	b8 00 00 00 00       	mov    $0x0,%eax
  400ec5:	48 85 c0             	test   %rax,%rax
  400ec8:	74 f1                	je     400ebb <frame_dummy+0xb>
  400eca:	55                   	push   %rbp
  400ecb:	48 89 e5             	mov    %rsp,%rbp
  400ece:	ff d0                	callq  *%rax
  400ed0:	5d                   	pop    %rbp
  400ed1:	e9 7a ff ff ff       	jmpq   400e50 <register_tm_clones>

0000000000400ed6 <usage>:
  400ed6:	48 83 ec 08          	sub    $0x8,%rsp
  400eda:	48 89 fe             	mov    %rdi,%rsi
  400edd:	83 3d 24 46 20 00 00 	cmpl   $0x0,0x204624(%rip)        # 605508 <is_checker>
  400ee4:	74 4b                	je     400f31 <usage+0x5b>
  400ee6:	48 8d 3d 4b 1f 00 00 	lea    0x1f4b(%rip),%rdi        # 402e38 <_IO_stdin_used+0x8>
  400eed:	b8 00 00 00 00       	mov    $0x0,%eax
  400ef2:	e8 69 fd ff ff       	callq  400c60 <printf@plt>
  400ef7:	48 8d 3d 72 1f 00 00 	lea    0x1f72(%rip),%rdi        # 402e70 <_IO_stdin_used+0x40>
  400efe:	e8 2d fd ff ff       	callq  400c30 <puts@plt>
  400f03:	48 8d 3d 9e 20 00 00 	lea    0x209e(%rip),%rdi        # 402fa8 <_IO_stdin_used+0x178>
  400f0a:	e8 21 fd ff ff       	callq  400c30 <puts@plt>
  400f0f:	48 8d 3d 82 1f 00 00 	lea    0x1f82(%rip),%rdi        # 402e98 <_IO_stdin_used+0x68>
  400f16:	e8 15 fd ff ff       	callq  400c30 <puts@plt>
  400f1b:	48 8d 3d a0 20 00 00 	lea    0x20a0(%rip),%rdi        # 402fc2 <_IO_stdin_used+0x192>
  400f22:	e8 09 fd ff ff       	callq  400c30 <puts@plt>
  400f27:	bf 00 00 00 00       	mov    $0x0,%edi
  400f2c:	e8 7f fe ff ff       	callq  400db0 <exit@plt>
  400f31:	48 8d 3d a6 20 00 00 	lea    0x20a6(%rip),%rdi        # 402fde <_IO_stdin_used+0x1ae>
  400f38:	b8 00 00 00 00       	mov    $0x0,%eax
  400f3d:	e8 1e fd ff ff       	callq  400c60 <printf@plt>
  400f42:	48 8d 3d 77 1f 00 00 	lea    0x1f77(%rip),%rdi        # 402ec0 <_IO_stdin_used+0x90>
  400f49:	e8 e2 fc ff ff       	callq  400c30 <puts@plt>
  400f4e:	48 8d 3d 93 1f 00 00 	lea    0x1f93(%rip),%rdi        # 402ee8 <_IO_stdin_used+0xb8>
  400f55:	e8 d6 fc ff ff       	callq  400c30 <puts@plt>
  400f5a:	48 8d 3d 9b 20 00 00 	lea    0x209b(%rip),%rdi        # 402ffc <_IO_stdin_used+0x1cc>
  400f61:	e8 ca fc ff ff       	callq  400c30 <puts@plt>
  400f66:	eb bf                	jmp    400f27 <usage+0x51>

0000000000400f68 <initialize_target>:
  400f68:	55                   	push   %rbp
  400f69:	53                   	push   %rbx
  400f6a:	48 81 ec 08 21 00 00 	sub    $0x2108,%rsp
  400f71:	89 f5                	mov    %esi,%ebp
  400f73:	89 3d 7f 45 20 00    	mov    %edi,0x20457f(%rip)        # 6054f8 <check_level>
  400f79:	8b 3d b1 41 20 00    	mov    0x2041b1(%rip),%edi        # 605130 <target_id>
  400f7f:	e8 02 1e 00 00       	callq  402d86 <gencookie>
  400f84:	89 05 7a 45 20 00    	mov    %eax,0x20457a(%rip)        # 605504 <cookie>
  400f8a:	89 c7                	mov    %eax,%edi
  400f8c:	e8 f5 1d 00 00       	callq  402d86 <gencookie>
  400f91:	89 05 69 45 20 00    	mov    %eax,0x204569(%rip)        # 605500 <authkey>
  400f97:	8b 05 93 41 20 00    	mov    0x204193(%rip),%eax        # 605130 <target_id>
  400f9d:	8d 78 01             	lea    0x1(%rax),%edi
  400fa0:	e8 5b fc ff ff       	callq  400c00 <srandom@plt>
  400fa5:	e8 66 fd ff ff       	callq  400d10 <random@plt>
  400faa:	89 c7                	mov    %eax,%edi
  400fac:	e8 c3 02 00 00       	callq  401274 <scramble>
  400fb1:	89 c3                	mov    %eax,%ebx
  400fb3:	85 ed                	test   %ebp,%ebp
  400fb5:	75 3d                	jne    400ff4 <initialize_target+0x8c>
  400fb7:	b8 00 00 00 00       	mov    $0x0,%eax
  400fbc:	01 d8                	add    %ebx,%eax
  400fbe:	0f b7 c0             	movzwl %ax,%eax
  400fc1:	8d 04 c5 00 01 00 00 	lea    0x100(,%rax,8),%eax
  400fc8:	89 c0                	mov    %eax,%eax
  400fca:	48 89 05 af 44 20 00 	mov    %rax,0x2044af(%rip)        # 605480 <buf_offset>
  400fd1:	c6 05 50 51 20 00 72 	movb   $0x72,0x205150(%rip)        # 606128 <target_prefix>
  400fd8:	83 3d a9 44 20 00 00 	cmpl   $0x0,0x2044a9(%rip)        # 605488 <notify>
  400fdf:	74 09                	je     400fea <initialize_target+0x82>
  400fe1:	83 3d 20 45 20 00 00 	cmpl   $0x0,0x204520(%rip)        # 605508 <is_checker>
  400fe8:	74 22                	je     40100c <initialize_target+0xa4>
  400fea:	48 81 c4 08 21 00 00 	add    $0x2108,%rsp
  400ff1:	5b                   	pop    %rbx
  400ff2:	5d                   	pop    %rbp
  400ff3:	c3                   	retq   
  400ff4:	bf 00 00 00 00       	mov    $0x0,%edi
  400ff9:	e8 02 fd ff ff       	callq  400d00 <time@plt>
  400ffe:	89 c7                	mov    %eax,%edi
  401000:	e8 fb fb ff ff       	callq  400c00 <srandom@plt>
  401005:	e8 06 fd ff ff       	callq  400d10 <random@plt>
  40100a:	eb b0                	jmp    400fbc <initialize_target+0x54>
  40100c:	48 89 e7             	mov    %rsp,%rdi
  40100f:	be 00 01 00 00       	mov    $0x100,%esi
  401014:	e8 77 fd ff ff       	callq  400d90 <gethostname@plt>
  401019:	89 c3                	mov    %eax,%ebx
  40101b:	85 c0                	test   %eax,%eax
  40101d:	75 24                	jne    401043 <initialize_target+0xdb>
  40101f:	48 63 c3             	movslq %ebx,%rax
  401022:	48 8d 15 37 41 20 00 	lea    0x204137(%rip),%rdx        # 605160 <host_table>
  401029:	48 8b 3c c2          	mov    (%rdx,%rax,8),%rdi
  40102d:	48 85 ff             	test   %rdi,%rdi
  401030:	74 27                	je     401059 <initialize_target+0xf1>
  401032:	48 89 e6             	mov    %rsp,%rsi
  401035:	e8 a6 fb ff ff       	callq  400be0 <strcasecmp@plt>
  40103a:	85 c0                	test   %eax,%eax
  40103c:	74 1b                	je     401059 <initialize_target+0xf1>
  40103e:	83 c3 01             	add    $0x1,%ebx
  401041:	eb dc                	jmp    40101f <initialize_target+0xb7>
  401043:	48 8d 3d ce 1e 00 00 	lea    0x1ece(%rip),%rdi        # 402f18 <_IO_stdin_used+0xe8>
  40104a:	e8 e1 fb ff ff       	callq  400c30 <puts@plt>
  40104f:	bf 08 00 00 00       	mov    $0x8,%edi
  401054:	e8 57 fd ff ff       	callq  400db0 <exit@plt>
  401059:	48 8d bc 24 00 01 00 	lea    0x100(%rsp),%rdi
  401060:	00 
  401061:	e8 a5 1a 00 00       	callq  402b0b <init_driver>
  401066:	85 c0                	test   %eax,%eax
  401068:	79 80                	jns    400fea <initialize_target+0x82>
  40106a:	48 8d b4 24 00 01 00 	lea    0x100(%rsp),%rsi
  401071:	00 
  401072:	48 8d 3d d7 1e 00 00 	lea    0x1ed7(%rip),%rdi        # 402f50 <_IO_stdin_used+0x120>
  401079:	b8 00 00 00 00       	mov    $0x0,%eax
  40107e:	e8 dd fb ff ff       	callq  400c60 <printf@plt>
  401083:	bf 08 00 00 00       	mov    $0x8,%edi
  401088:	e8 23 fd ff ff       	callq  400db0 <exit@plt>

000000000040108d <main>:
  40108d:	41 56                	push   %r14
  40108f:	41 55                	push   %r13
  401091:	41 54                	push   %r12
  401093:	55                   	push   %rbp
  401094:	53                   	push   %rbx
  401095:	41 89 fc             	mov    %edi,%r12d
  401098:	48 89 f3             	mov    %rsi,%rbx
  40109b:	48 c7 c6 b1 1e 40 00 	mov    $0x401eb1,%rsi
  4010a2:	bf 0b 00 00 00       	mov    $0xb,%edi
  4010a7:	e8 04 fc ff ff       	callq  400cb0 <signal@plt>
  4010ac:	48 c7 c6 5d 1e 40 00 	mov    $0x401e5d,%rsi
  4010b3:	bf 07 00 00 00       	mov    $0x7,%edi
  4010b8:	e8 f3 fb ff ff       	callq  400cb0 <signal@plt>
  4010bd:	48 c7 c6 05 1f 40 00 	mov    $0x401f05,%rsi
  4010c4:	bf 04 00 00 00       	mov    $0x4,%edi
  4010c9:	e8 e2 fb ff ff       	callq  400cb0 <signal@plt>
  4010ce:	83 3d 33 44 20 00 00 	cmpl   $0x0,0x204433(%rip)        # 605508 <is_checker>
  4010d5:	75 58                	jne    40112f <main+0xa2>
  4010d7:	48 8d 2d 37 1f 00 00 	lea    0x1f37(%rip),%rbp        # 403015 <_IO_stdin_used+0x1e5>
  4010de:	48 8b 05 bb 43 20 00 	mov    0x2043bb(%rip),%rax        # 6054a0 <stdin@@GLIBC_2.2.5>
  4010e5:	48 89 05 04 44 20 00 	mov    %rax,0x204404(%rip)        # 6054f0 <infile>
  4010ec:	41 bd 00 00 00 00    	mov    $0x0,%r13d
  4010f2:	41 be 00 00 00 00    	mov    $0x0,%r14d
  4010f8:	48 89 ea             	mov    %rbp,%rdx
  4010fb:	48 89 de             	mov    %rbx,%rsi
  4010fe:	44 89 e7             	mov    %r12d,%edi
  401101:	e8 6a fc ff ff       	callq  400d70 <getopt@plt>
  401106:	3c ff                	cmp    $0xff,%al
  401108:	0f 84 f8 00 00 00    	je     401206 <main+0x179>
  40110e:	0f be f0             	movsbl %al,%esi
  401111:	83 e8 61             	sub    $0x61,%eax
  401114:	3c 10                	cmp    $0x10,%al
  401116:	0f 87 d1 00 00 00    	ja     4011ed <main+0x160>
  40111c:	0f b6 c0             	movzbl %al,%eax
  40111f:	48 8d 15 3a 1f 00 00 	lea    0x1f3a(%rip),%rdx        # 403060 <_IO_stdin_used+0x230>
  401126:	48 63 04 82          	movslq (%rdx,%rax,4),%rax
  40112a:	48 01 d0             	add    %rdx,%rax
  40112d:	ff e0                	jmpq   *%rax
  40112f:	48 c7 c6 59 1f 40 00 	mov    $0x401f59,%rsi
  401136:	bf 0e 00 00 00       	mov    $0xe,%edi
  40113b:	e8 70 fb ff ff       	callq  400cb0 <signal@plt>
  401140:	bf 05 00 00 00       	mov    $0x5,%edi
  401145:	e8 36 fb ff ff       	callq  400c80 <alarm@plt>
  40114a:	48 8d 2d c9 1e 00 00 	lea    0x1ec9(%rip),%rbp        # 40301a <_IO_stdin_used+0x1ea>
  401151:	eb 8b                	jmp    4010de <main+0x51>
  401153:	48 8b 3b             	mov    (%rbx),%rdi
  401156:	e8 7b fd ff ff       	callq  400ed6 <usage>
  40115b:	48 8d 35 43 21 00 00 	lea    0x2143(%rip),%rsi        # 4032a5 <_IO_stdin_used+0x475>
  401162:	48 8b 3d 3f 43 20 00 	mov    0x20433f(%rip),%rdi        # 6054a8 <optarg@@GLIBC_2.2.5>
  401169:	e8 f2 fb ff ff       	callq  400d60 <fopen@plt>
  40116e:	48 89 05 7b 43 20 00 	mov    %rax,0x20437b(%rip)        # 6054f0 <infile>
  401175:	48 85 c0             	test   %rax,%rax
  401178:	0f 85 7a ff ff ff    	jne    4010f8 <main+0x6b>
  40117e:	48 8b 15 23 43 20 00 	mov    0x204323(%rip),%rdx        # 6054a8 <optarg@@GLIBC_2.2.5>
  401185:	48 8d 35 96 1e 00 00 	lea    0x1e96(%rip),%rsi        # 403022 <_IO_stdin_used+0x1f2>
  40118c:	48 8b 3d 2d 43 20 00 	mov    0x20432d(%rip),%rdi        # 6054c0 <stderr@@GLIBC_2.2.5>
  401193:	e8 38 fb ff ff       	callq  400cd0 <fprintf@plt>
  401198:	b8 01 00 00 00       	mov    $0x1,%eax
  40119d:	e9 c9 00 00 00       	jmpq   40126b <main+0x1de>
  4011a2:	ba 10 00 00 00       	mov    $0x10,%edx
  4011a7:	be 00 00 00 00       	mov    $0x0,%esi
  4011ac:	48 8b 3d f5 42 20 00 	mov    0x2042f5(%rip),%rdi        # 6054a8 <optarg@@GLIBC_2.2.5>
  4011b3:	e8 c8 fb ff ff       	callq  400d80 <strtoul@plt>
  4011b8:	41 89 c6             	mov    %eax,%r14d
  4011bb:	e9 38 ff ff ff       	jmpq   4010f8 <main+0x6b>
  4011c0:	ba 0a 00 00 00       	mov    $0xa,%edx
  4011c5:	be 00 00 00 00       	mov    $0x0,%esi
  4011ca:	48 8b 3d d7 42 20 00 	mov    0x2042d7(%rip),%rdi        # 6054a8 <optarg@@GLIBC_2.2.5>
  4011d1:	e8 0a fb ff ff       	callq  400ce0 <strtol@plt>
  4011d6:	41 89 c5             	mov    %eax,%r13d
  4011d9:	e9 1a ff ff ff       	jmpq   4010f8 <main+0x6b>
  4011de:	c7 05 a0 42 20 00 00 	movl   $0x0,0x2042a0(%rip)        # 605488 <notify>
  4011e5:	00 00 00 
  4011e8:	e9 0b ff ff ff       	jmpq   4010f8 <main+0x6b>
  4011ed:	48 8d 3d 4b 1e 00 00 	lea    0x1e4b(%rip),%rdi        # 40303f <_IO_stdin_used+0x20f>
  4011f4:	b8 00 00 00 00       	mov    $0x0,%eax
  4011f9:	e8 62 fa ff ff       	callq  400c60 <printf@plt>
  4011fe:	48 8b 3b             	mov    (%rbx),%rdi
  401201:	e8 d0 fc ff ff       	callq  400ed6 <usage>
  401206:	be 01 00 00 00       	mov    $0x1,%esi
  40120b:	44 89 ef             	mov    %r13d,%edi
  40120e:	e8 55 fd ff ff       	callq  400f68 <initialize_target>
  401213:	83 3d ee 42 20 00 00 	cmpl   $0x0,0x2042ee(%rip)        # 605508 <is_checker>
  40121a:	74 27                	je     401243 <main+0x1b6>
  40121c:	44 3b 35 dd 42 20 00 	cmp    0x2042dd(%rip),%r14d        # 605500 <authkey>
  401223:	74 1e                	je     401243 <main+0x1b6>
  401225:	44 89 f6             	mov    %r14d,%esi
  401228:	48 8d 3d 49 1d 00 00 	lea    0x1d49(%rip),%rdi        # 402f78 <_IO_stdin_used+0x148>
  40122f:	b8 00 00 00 00       	mov    $0x0,%eax
  401234:	e8 27 fa ff ff       	callq  400c60 <printf@plt>
  401239:	b8 00 00 00 00       	mov    $0x0,%eax
  40123e:	e8 ea 08 00 00       	callq  401b2d <check_fail>
  401243:	8b 35 bb 42 20 00    	mov    0x2042bb(%rip),%esi        # 605504 <cookie>
  401249:	48 8d 3d 02 1e 00 00 	lea    0x1e02(%rip),%rdi        # 403052 <_IO_stdin_used+0x222>
  401250:	b8 00 00 00 00       	mov    $0x0,%eax
  401255:	e8 06 fa ff ff       	callq  400c60 <printf@plt>
  40125a:	48 8b 3d 1f 42 20 00 	mov    0x20421f(%rip),%rdi        # 605480 <buf_offset>
  401261:	e8 45 0d 00 00       	callq  401fab <launch>
  401266:	b8 00 00 00 00       	mov    $0x0,%eax
  40126b:	5b                   	pop    %rbx
  40126c:	5d                   	pop    %rbp
  40126d:	41 5c                	pop    %r12
  40126f:	41 5d                	pop    %r13
  401271:	41 5e                	pop    %r14
  401273:	c3                   	retq   

0000000000401274 <scramble>:
  401274:	b8 00 00 00 00       	mov    $0x0,%eax
  401279:	eb 11                	jmp    40128c <scramble+0x18>
  40127b:	69 d0 ad b3 00 00    	imul   $0xb3ad,%eax,%edx
  401281:	01 fa                	add    %edi,%edx
  401283:	89 c1                	mov    %eax,%ecx
  401285:	89 54 8c d0          	mov    %edx,-0x30(%rsp,%rcx,4)
  401289:	83 c0 01             	add    $0x1,%eax
  40128c:	83 f8 09             	cmp    $0x9,%eax
  40128f:	76 ea                	jbe    40127b <scramble+0x7>
  401291:	8b 44 24 ec          	mov    -0x14(%rsp),%eax
  401295:	69 c0 7f e8 00 00    	imul   $0xe87f,%eax,%eax
  40129b:	89 44 24 ec          	mov    %eax,-0x14(%rsp)
  40129f:	8b 44 24 f4          	mov    -0xc(%rsp),%eax
  4012a3:	69 c0 9f 5b 00 00    	imul   $0x5b9f,%eax,%eax
  4012a9:	89 44 24 f4          	mov    %eax,-0xc(%rsp)
  4012ad:	8b 44 24 d4          	mov    -0x2c(%rsp),%eax
  4012b1:	69 c0 f1 4a 00 00    	imul   $0x4af1,%eax,%eax
  4012b7:	89 44 24 d4          	mov    %eax,-0x2c(%rsp)
  4012bb:	8b 44 24 ec          	mov    -0x14(%rsp),%eax
  4012bf:	69 c0 79 f5 00 00    	imul   $0xf579,%eax,%eax
  4012c5:	89 44 24 ec          	mov    %eax,-0x14(%rsp)
  4012c9:	8b 44 24 e4          	mov    -0x1c(%rsp),%eax
  4012cd:	69 c0 39 20 00 00    	imul   $0x2039,%eax,%eax
  4012d3:	89 44 24 e4          	mov    %eax,-0x1c(%rsp)
  4012d7:	8b 44 24 e8          	mov    -0x18(%rsp),%eax
  4012db:	69 c0 93 33 00 00    	imul   $0x3393,%eax,%eax
  4012e1:	89 44 24 e8          	mov    %eax,-0x18(%rsp)
  4012e5:	8b 44 24 f0          	mov    -0x10(%rsp),%eax
  4012e9:	69 c0 ae cd 00 00    	imul   $0xcdae,%eax,%eax
  4012ef:	89 44 24 f0          	mov    %eax,-0x10(%rsp)
  4012f3:	8b 44 24 ec          	mov    -0x14(%rsp),%eax
  4012f7:	69 c0 b0 c5 00 00    	imul   $0xc5b0,%eax,%eax
  4012fd:	89 44 24 ec          	mov    %eax,-0x14(%rsp)
  401301:	8b 44 24 dc          	mov    -0x24(%rsp),%eax
  401305:	69 c0 7a 2a 00 00    	imul   $0x2a7a,%eax,%eax
  40130b:	89 44 24 dc          	mov    %eax,-0x24(%rsp)
  40130f:	8b 44 24 d4          	mov    -0x2c(%rsp),%eax
  401313:	69 c0 f2 72 00 00    	imul   $0x72f2,%eax,%eax
  401319:	89 44 24 d4          	mov    %eax,-0x2c(%rsp)
  40131d:	8b 44 24 f0          	mov    -0x10(%rsp),%eax
  401321:	69 c0 e5 76 00 00    	imul   $0x76e5,%eax,%eax
  401327:	89 44 24 f0          	mov    %eax,-0x10(%rsp)
  40132b:	8b 44 24 dc          	mov    -0x24(%rsp),%eax
  40132f:	69 c0 23 e9 00 00    	imul   $0xe923,%eax,%eax
  401335:	89 44 24 dc          	mov    %eax,-0x24(%rsp)
  401339:	8b 44 24 d0          	mov    -0x30(%rsp),%eax
  40133d:	69 c0 d8 61 00 00    	imul   $0x61d8,%eax,%eax
  401343:	89 44 24 d0          	mov    %eax,-0x30(%rsp)
  401347:	8b 44 24 f0          	mov    -0x10(%rsp),%eax
  40134b:	69 c0 b7 83 00 00    	imul   $0x83b7,%eax,%eax
  401351:	89 44 24 f0          	mov    %eax,-0x10(%rsp)
  401355:	8b 44 24 ec          	mov    -0x14(%rsp),%eax
  401359:	69 c0 ec a3 00 00    	imul   $0xa3ec,%eax,%eax
  40135f:	89 44 24 ec          	mov    %eax,-0x14(%rsp)
  401363:	8b 44 24 e8          	mov    -0x18(%rsp),%eax
  401367:	69 c0 88 d5 00 00    	imul   $0xd588,%eax,%eax
  40136d:	89 44 24 e8          	mov    %eax,-0x18(%rsp)
  401371:	8b 44 24 ec          	mov    -0x14(%rsp),%eax
  401375:	69 c0 74 60 00 00    	imul   $0x6074,%eax,%eax
  40137b:	89 44 24 ec          	mov    %eax,-0x14(%rsp)
  40137f:	8b 44 24 d4          	mov    -0x2c(%rsp),%eax
  401383:	69 c0 7b e4 00 00    	imul   $0xe47b,%eax,%eax
  401389:	89 44 24 d4          	mov    %eax,-0x2c(%rsp)
  40138d:	8b 44 24 d4          	mov    -0x2c(%rsp),%eax
  401391:	69 c0 8e 4a 00 00    	imul   $0x4a8e,%eax,%eax
  401397:	89 44 24 d4          	mov    %eax,-0x2c(%rsp)
  40139b:	8b 44 24 d4          	mov    -0x2c(%rsp),%eax
  40139f:	69 c0 1d 49 00 00    	imul   $0x491d,%eax,%eax
  4013a5:	89 44 24 d4          	mov    %eax,-0x2c(%rsp)
  4013a9:	8b 44 24 d0          	mov    -0x30(%rsp),%eax
  4013ad:	69 c0 d2 2a 00 00    	imul   $0x2ad2,%eax,%eax
  4013b3:	89 44 24 d0          	mov    %eax,-0x30(%rsp)
  4013b7:	8b 44 24 d0          	mov    -0x30(%rsp),%eax
  4013bb:	69 c0 4f 75 00 00    	imul   $0x754f,%eax,%eax
  4013c1:	89 44 24 d0          	mov    %eax,-0x30(%rsp)
  4013c5:	8b 44 24 ec          	mov    -0x14(%rsp),%eax
  4013c9:	69 c0 9a 86 00 00    	imul   $0x869a,%eax,%eax
  4013cf:	89 44 24 ec          	mov    %eax,-0x14(%rsp)
  4013d3:	8b 44 24 e0          	mov    -0x20(%rsp),%eax
  4013d7:	69 c0 bd f7 00 00    	imul   $0xf7bd,%eax,%eax
  4013dd:	89 44 24 e0          	mov    %eax,-0x20(%rsp)
  4013e1:	8b 44 24 e4          	mov    -0x1c(%rsp),%eax
  4013e5:	69 c0 06 d7 00 00    	imul   $0xd706,%eax,%eax
  4013eb:	89 44 24 e4          	mov    %eax,-0x1c(%rsp)
  4013ef:	8b 44 24 e4          	mov    -0x1c(%rsp),%eax
  4013f3:	69 c0 9d fd 00 00    	imul   $0xfd9d,%eax,%eax
  4013f9:	89 44 24 e4          	mov    %eax,-0x1c(%rsp)
  4013fd:	8b 44 24 d0          	mov    -0x30(%rsp),%eax
  401401:	69 c0 e4 5e 00 00    	imul   $0x5ee4,%eax,%eax
  401407:	89 44 24 d0          	mov    %eax,-0x30(%rsp)
  40140b:	8b 44 24 e0          	mov    -0x20(%rsp),%eax
  40140f:	69 c0 41 1f 00 00    	imul   $0x1f41,%eax,%eax
  401415:	89 44 24 e0          	mov    %eax,-0x20(%rsp)
  401419:	8b 44 24 d0          	mov    -0x30(%rsp),%eax
  40141d:	69 c0 0e d6 00 00    	imul   $0xd60e,%eax,%eax
  401423:	89 44 24 d0          	mov    %eax,-0x30(%rsp)
  401427:	8b 44 24 f4          	mov    -0xc(%rsp),%eax
  40142b:	69 c0 96 e2 00 00    	imul   $0xe296,%eax,%eax
  401431:	89 44 24 f4          	mov    %eax,-0xc(%rsp)
  401435:	8b 44 24 f0          	mov    -0x10(%rsp),%eax
  401439:	69 c0 69 b2 00 00    	imul   $0xb269,%eax,%eax
  40143f:	89 44 24 f0          	mov    %eax,-0x10(%rsp)
  401443:	8b 44 24 e4          	mov    -0x1c(%rsp),%eax
  401447:	69 c0 67 06 00 00    	imul   $0x667,%eax,%eax
  40144d:	89 44 24 e4          	mov    %eax,-0x1c(%rsp)
  401451:	8b 44 24 d8          	mov    -0x28(%rsp),%eax
  401455:	69 c0 45 e9 00 00    	imul   $0xe945,%eax,%eax
  40145b:	89 44 24 d8          	mov    %eax,-0x28(%rsp)
  40145f:	8b 44 24 e4          	mov    -0x1c(%rsp),%eax
  401463:	69 c0 43 be 00 00    	imul   $0xbe43,%eax,%eax
  401469:	89 44 24 e4          	mov    %eax,-0x1c(%rsp)
  40146d:	8b 44 24 d0          	mov    -0x30(%rsp),%eax
  401471:	69 c0 d7 c4 00 00    	imul   $0xc4d7,%eax,%eax
  401477:	89 44 24 d0          	mov    %eax,-0x30(%rsp)
  40147b:	8b 44 24 d4          	mov    -0x2c(%rsp),%eax
  40147f:	69 c0 9a 9e 00 00    	imul   $0x9e9a,%eax,%eax
  401485:	89 44 24 d4          	mov    %eax,-0x2c(%rsp)
  401489:	8b 44 24 e8          	mov    -0x18(%rsp),%eax
  40148d:	69 c0 10 84 00 00    	imul   $0x8410,%eax,%eax
  401493:	89 44 24 e8          	mov    %eax,-0x18(%rsp)
  401497:	8b 44 24 dc          	mov    -0x24(%rsp),%eax
  40149b:	69 c0 2a e8 00 00    	imul   $0xe82a,%eax,%eax
  4014a1:	89 44 24 dc          	mov    %eax,-0x24(%rsp)
  4014a5:	8b 44 24 d4          	mov    -0x2c(%rsp),%eax
  4014a9:	69 c0 e9 4e 00 00    	imul   $0x4ee9,%eax,%eax
  4014af:	89 44 24 d4          	mov    %eax,-0x2c(%rsp)
  4014b3:	8b 44 24 e0          	mov    -0x20(%rsp),%eax
  4014b7:	69 c0 bf bb 00 00    	imul   $0xbbbf,%eax,%eax
  4014bd:	89 44 24 e0          	mov    %eax,-0x20(%rsp)
  4014c1:	8b 44 24 e4          	mov    -0x1c(%rsp),%eax
  4014c5:	69 c0 97 4a 00 00    	imul   $0x4a97,%eax,%eax
  4014cb:	89 44 24 e4          	mov    %eax,-0x1c(%rsp)
  4014cf:	8b 44 24 dc          	mov    -0x24(%rsp),%eax
  4014d3:	69 c0 db 73 00 00    	imul   $0x73db,%eax,%eax
  4014d9:	89 44 24 dc          	mov    %eax,-0x24(%rsp)
  4014dd:	8b 44 24 d0          	mov    -0x30(%rsp),%eax
  4014e1:	69 c0 1d a0 00 00    	imul   $0xa01d,%eax,%eax
  4014e7:	89 44 24 d0          	mov    %eax,-0x30(%rsp)
  4014eb:	8b 44 24 d0          	mov    -0x30(%rsp),%eax
  4014ef:	69 c0 37 6a 00 00    	imul   $0x6a37,%eax,%eax
  4014f5:	89 44 24 d0          	mov    %eax,-0x30(%rsp)
  4014f9:	8b 44 24 d4          	mov    -0x2c(%rsp),%eax
  4014fd:	69 c0 15 36 00 00    	imul   $0x3615,%eax,%eax
  401503:	89 44 24 d4          	mov    %eax,-0x2c(%rsp)
  401507:	8b 44 24 d0          	mov    -0x30(%rsp),%eax
  40150b:	69 c0 27 f0 00 00    	imul   $0xf027,%eax,%eax
  401511:	89 44 24 d0          	mov    %eax,-0x30(%rsp)
  401515:	8b 44 24 e8          	mov    -0x18(%rsp),%eax
  401519:	69 c0 ec 04 00 00    	imul   $0x4ec,%eax,%eax
  40151f:	89 44 24 e8          	mov    %eax,-0x18(%rsp)
  401523:	8b 44 24 ec          	mov    -0x14(%rsp),%eax
  401527:	69 c0 5c fb 00 00    	imul   $0xfb5c,%eax,%eax
  40152d:	89 44 24 ec          	mov    %eax,-0x14(%rsp)
  401531:	8b 44 24 e4          	mov    -0x1c(%rsp),%eax
  401535:	69 c0 70 e1 00 00    	imul   $0xe170,%eax,%eax
  40153b:	89 44 24 e4          	mov    %eax,-0x1c(%rsp)
  40153f:	8b 44 24 e0          	mov    -0x20(%rsp),%eax
  401543:	69 c0 05 22 00 00    	imul   $0x2205,%eax,%eax
  401549:	89 44 24 e0          	mov    %eax,-0x20(%rsp)
  40154d:	8b 44 24 d4          	mov    -0x2c(%rsp),%eax
  401551:	69 c0 ff c0 00 00    	imul   $0xc0ff,%eax,%eax
  401557:	89 44 24 d4          	mov    %eax,-0x2c(%rsp)
  40155b:	8b 44 24 ec          	mov    -0x14(%rsp),%eax
  40155f:	69 c0 f1 95 00 00    	imul   $0x95f1,%eax,%eax
  401565:	89 44 24 ec          	mov    %eax,-0x14(%rsp)
  401569:	8b 44 24 f4          	mov    -0xc(%rsp),%eax
  40156d:	69 c0 89 d4 00 00    	imul   $0xd489,%eax,%eax
  401573:	89 44 24 f4          	mov    %eax,-0xc(%rsp)
  401577:	8b 44 24 d4          	mov    -0x2c(%rsp),%eax
  40157b:	69 c0 ba 4f 00 00    	imul   $0x4fba,%eax,%eax
  401581:	89 44 24 d4          	mov    %eax,-0x2c(%rsp)
  401585:	8b 44 24 d0          	mov    -0x30(%rsp),%eax
  401589:	69 c0 03 5e 00 00    	imul   $0x5e03,%eax,%eax
  40158f:	89 44 24 d0          	mov    %eax,-0x30(%rsp)
  401593:	8b 44 24 d0          	mov    -0x30(%rsp),%eax
  401597:	69 c0 63 49 00 00    	imul   $0x4963,%eax,%eax
  40159d:	89 44 24 d0          	mov    %eax,-0x30(%rsp)
  4015a1:	8b 44 24 f0          	mov    -0x10(%rsp),%eax
  4015a5:	69 c0 d7 c4 00 00    	imul   $0xc4d7,%eax,%eax
  4015ab:	89 44 24 f0          	mov    %eax,-0x10(%rsp)
  4015af:	8b 44 24 e0          	mov    -0x20(%rsp),%eax
  4015b3:	69 c0 15 52 00 00    	imul   $0x5215,%eax,%eax
  4015b9:	89 44 24 e0          	mov    %eax,-0x20(%rsp)
  4015bd:	8b 44 24 d8          	mov    -0x28(%rsp),%eax
  4015c1:	69 c0 5b 50 00 00    	imul   $0x505b,%eax,%eax
  4015c7:	89 44 24 d8          	mov    %eax,-0x28(%rsp)
  4015cb:	8b 44 24 d8          	mov    -0x28(%rsp),%eax
  4015cf:	69 c0 20 db 00 00    	imul   $0xdb20,%eax,%eax
  4015d5:	89 44 24 d8          	mov    %eax,-0x28(%rsp)
  4015d9:	8b 44 24 dc          	mov    -0x24(%rsp),%eax
  4015dd:	69 c0 19 09 00 00    	imul   $0x919,%eax,%eax
  4015e3:	89 44 24 dc          	mov    %eax,-0x24(%rsp)
  4015e7:	8b 44 24 e4          	mov    -0x1c(%rsp),%eax
  4015eb:	69 c0 ee 6e 00 00    	imul   $0x6eee,%eax,%eax
  4015f1:	89 44 24 e4          	mov    %eax,-0x1c(%rsp)
  4015f5:	8b 44 24 f0          	mov    -0x10(%rsp),%eax
  4015f9:	69 c0 d5 c1 00 00    	imul   $0xc1d5,%eax,%eax
  4015ff:	89 44 24 f0          	mov    %eax,-0x10(%rsp)
  401603:	8b 44 24 d0          	mov    -0x30(%rsp),%eax
  401607:	69 c0 37 fc 00 00    	imul   $0xfc37,%eax,%eax
  40160d:	89 44 24 d0          	mov    %eax,-0x30(%rsp)
  401611:	8b 44 24 f0          	mov    -0x10(%rsp),%eax
  401615:	69 c0 e9 23 00 00    	imul   $0x23e9,%eax,%eax
  40161b:	89 44 24 f0          	mov    %eax,-0x10(%rsp)
  40161f:	8b 44 24 d0          	mov    -0x30(%rsp),%eax
  401623:	69 c0 8e 49 00 00    	imul   $0x498e,%eax,%eax
  401629:	89 44 24 d0          	mov    %eax,-0x30(%rsp)
  40162d:	8b 44 24 d4          	mov    -0x2c(%rsp),%eax
  401631:	69 c0 db de 00 00    	imul   $0xdedb,%eax,%eax
  401637:	89 44 24 d4          	mov    %eax,-0x2c(%rsp)
  40163b:	8b 44 24 f4          	mov    -0xc(%rsp),%eax
  40163f:	69 c0 f8 29 00 00    	imul   $0x29f8,%eax,%eax
  401645:	89 44 24 f4          	mov    %eax,-0xc(%rsp)
  401649:	8b 44 24 d0          	mov    -0x30(%rsp),%eax
  40164d:	69 c0 9b 5d 00 00    	imul   $0x5d9b,%eax,%eax
  401653:	89 44 24 d0          	mov    %eax,-0x30(%rsp)
  401657:	8b 44 24 e8          	mov    -0x18(%rsp),%eax
  40165b:	69 c0 d8 d6 00 00    	imul   $0xd6d8,%eax,%eax
  401661:	89 44 24 e8          	mov    %eax,-0x18(%rsp)
  401665:	8b 44 24 f4          	mov    -0xc(%rsp),%eax
  401669:	69 c0 2c 85 00 00    	imul   $0x852c,%eax,%eax
  40166f:	89 44 24 f4          	mov    %eax,-0xc(%rsp)
  401673:	8b 44 24 ec          	mov    -0x14(%rsp),%eax
  401677:	69 c0 38 64 00 00    	imul   $0x6438,%eax,%eax
  40167d:	89 44 24 ec          	mov    %eax,-0x14(%rsp)
  401681:	8b 44 24 dc          	mov    -0x24(%rsp),%eax
  401685:	69 c0 79 dd 00 00    	imul   $0xdd79,%eax,%eax
  40168b:	89 44 24 dc          	mov    %eax,-0x24(%rsp)
  40168f:	8b 44 24 d0          	mov    -0x30(%rsp),%eax
  401693:	69 c0 f8 ae 00 00    	imul   $0xaef8,%eax,%eax
  401699:	89 44 24 d0          	mov    %eax,-0x30(%rsp)
  40169d:	8b 44 24 f0          	mov    -0x10(%rsp),%eax
  4016a1:	69 c0 99 72 00 00    	imul   $0x7299,%eax,%eax
  4016a7:	89 44 24 f0          	mov    %eax,-0x10(%rsp)
  4016ab:	8b 44 24 d8          	mov    -0x28(%rsp),%eax
  4016af:	69 c0 44 b4 00 00    	imul   $0xb444,%eax,%eax
  4016b5:	89 44 24 d8          	mov    %eax,-0x28(%rsp)
  4016b9:	8b 44 24 e4          	mov    -0x1c(%rsp),%eax
  4016bd:	69 c0 60 55 00 00    	imul   $0x5560,%eax,%eax
  4016c3:	89 44 24 e4          	mov    %eax,-0x1c(%rsp)
  4016c7:	8b 44 24 dc          	mov    -0x24(%rsp),%eax
  4016cb:	69 c0 b8 89 00 00    	imul   $0x89b8,%eax,%eax
  4016d1:	89 44 24 dc          	mov    %eax,-0x24(%rsp)
  4016d5:	8b 44 24 dc          	mov    -0x24(%rsp),%eax
  4016d9:	69 c0 7d 8d 00 00    	imul   $0x8d7d,%eax,%eax
  4016df:	89 44 24 dc          	mov    %eax,-0x24(%rsp)
  4016e3:	8b 44 24 d4          	mov    -0x2c(%rsp),%eax
  4016e7:	69 c0 7b ba 00 00    	imul   $0xba7b,%eax,%eax
  4016ed:	89 44 24 d4          	mov    %eax,-0x2c(%rsp)
  4016f1:	8b 44 24 d4          	mov    -0x2c(%rsp),%eax
  4016f5:	69 c0 2b a4 00 00    	imul   $0xa42b,%eax,%eax
  4016fb:	89 44 24 d4          	mov    %eax,-0x2c(%rsp)
  4016ff:	8b 44 24 e0          	mov    -0x20(%rsp),%eax
  401703:	69 c0 4f 96 00 00    	imul   $0x964f,%eax,%eax
  401709:	89 44 24 e0          	mov    %eax,-0x20(%rsp)
  40170d:	8b 44 24 f4          	mov    -0xc(%rsp),%eax
  401711:	69 c0 89 e3 00 00    	imul   $0xe389,%eax,%eax
  401717:	89 44 24 f4          	mov    %eax,-0xc(%rsp)
  40171b:	8b 44 24 f0          	mov    -0x10(%rsp),%eax
  40171f:	69 c0 6b 36 00 00    	imul   $0x366b,%eax,%eax
  401725:	89 44 24 f0          	mov    %eax,-0x10(%rsp)
  401729:	8b 44 24 ec          	mov    -0x14(%rsp),%eax
  40172d:	69 c0 fa 39 00 00    	imul   $0x39fa,%eax,%eax
  401733:	89 44 24 ec          	mov    %eax,-0x14(%rsp)
  401737:	8b 44 24 d8          	mov    -0x28(%rsp),%eax
  40173b:	69 c0 c2 fc 00 00    	imul   $0xfcc2,%eax,%eax
  401741:	89 44 24 d8          	mov    %eax,-0x28(%rsp)
  401745:	8b 44 24 d8          	mov    -0x28(%rsp),%eax
  401749:	69 c0 7e 2d 00 00    	imul   $0x2d7e,%eax,%eax
  40174f:	89 44 24 d8          	mov    %eax,-0x28(%rsp)
  401753:	8b 44 24 d0          	mov    -0x30(%rsp),%eax
  401757:	69 c0 2a 09 00 00    	imul   $0x92a,%eax,%eax
  40175d:	89 44 24 d0          	mov    %eax,-0x30(%rsp)
  401761:	8b 44 24 e0          	mov    -0x20(%rsp),%eax
  401765:	69 c0 47 17 00 00    	imul   $0x1747,%eax,%eax
  40176b:	89 44 24 e0          	mov    %eax,-0x20(%rsp)
  40176f:	8b 44 24 e0          	mov    -0x20(%rsp),%eax
  401773:	69 c0 cc 38 00 00    	imul   $0x38cc,%eax,%eax
  401779:	89 44 24 e0          	mov    %eax,-0x20(%rsp)
  40177d:	8b 44 24 dc          	mov    -0x24(%rsp),%eax
  401781:	69 c0 3a 42 00 00    	imul   $0x423a,%eax,%eax
  401787:	89 44 24 dc          	mov    %eax,-0x24(%rsp)
  40178b:	8b 44 24 e8          	mov    -0x18(%rsp),%eax
  40178f:	69 c0 92 05 00 00    	imul   $0x592,%eax,%eax
  401795:	89 44 24 e8          	mov    %eax,-0x18(%rsp)
  401799:	8b 44 24 e0          	mov    -0x20(%rsp),%eax
  40179d:	69 c0 44 10 00 00    	imul   $0x1044,%eax,%eax
  4017a3:	89 44 24 e0          	mov    %eax,-0x20(%rsp)
  4017a7:	8b 44 24 ec          	mov    -0x14(%rsp),%eax
  4017ab:	69 c0 d0 ae 00 00    	imul   $0xaed0,%eax,%eax
  4017b1:	89 44 24 ec          	mov    %eax,-0x14(%rsp)
  4017b5:	8b 44 24 f4          	mov    -0xc(%rsp),%eax
  4017b9:	69 c0 39 15 00 00    	imul   $0x1539,%eax,%eax
  4017bf:	89 44 24 f4          	mov    %eax,-0xc(%rsp)
  4017c3:	8b 44 24 e0          	mov    -0x20(%rsp),%eax
  4017c7:	69 c0 28 4f 00 00    	imul   $0x4f28,%eax,%eax
  4017cd:	89 44 24 e0          	mov    %eax,-0x20(%rsp)
  4017d1:	ba 00 00 00 00       	mov    $0x0,%edx
  4017d6:	b8 00 00 00 00       	mov    $0x0,%eax
  4017db:	eb 0b                	jmp    4017e8 <scramble+0x574>
  4017dd:	89 d1                	mov    %edx,%ecx
  4017df:	8b 4c 8c d0          	mov    -0x30(%rsp,%rcx,4),%ecx
  4017e3:	01 c8                	add    %ecx,%eax
  4017e5:	83 c2 01             	add    $0x1,%edx
  4017e8:	83 fa 09             	cmp    $0x9,%edx
  4017eb:	76 f0                	jbe    4017dd <scramble+0x569>
  4017ed:	f3 c3                	repz retq 

00000000004017ef <getbuf>:
  4017ef:	48 83 ec 28          	sub    $0x28,%rsp
  4017f3:	48 89 e7             	mov    %rsp,%rdi
  4017f6:	e8 65 03 00 00       	callq  401b60 <Gets>
  4017fb:	b8 01 00 00 00       	mov    $0x1,%eax
  401800:	48 83 c4 28          	add    $0x28,%rsp
  401804:	c3                   	retq   

0000000000401805 <touch1>:
  401805:	48 83 ec 08          	sub    $0x8,%rsp
  401809:	c7 05 e9 3c 20 00 01 	movl   $0x1,0x203ce9(%rip)        # 6054fc <vlevel>
  401810:	00 00 00 
  401813:	48 8d 3d e1 18 00 00 	lea    0x18e1(%rip),%rdi        # 4030fb <_IO_stdin_used+0x2cb>
  40181a:	e8 11 f4 ff ff       	callq  400c30 <puts@plt>
  40181f:	bf 01 00 00 00       	mov    $0x1,%edi
  401824:	e8 4e 05 00 00       	callq  401d77 <validate>
  401829:	bf 00 00 00 00       	mov    $0x0,%edi
  40182e:	e8 7d f5 ff ff       	callq  400db0 <exit@plt>

0000000000401833 <touch2>:
  401833:	48 83 ec 08          	sub    $0x8,%rsp
  401837:	89 fe                	mov    %edi,%esi
  401839:	c7 05 b9 3c 20 00 02 	movl   $0x2,0x203cb9(%rip)        # 6054fc <vlevel>
  401840:	00 00 00 
  401843:	39 3d bb 3c 20 00    	cmp    %edi,0x203cbb(%rip)        # 605504 <cookie>
  401849:	74 25                	je     401870 <touch2+0x3d>
  40184b:	48 8d 3d f6 18 00 00 	lea    0x18f6(%rip),%rdi        # 403148 <_IO_stdin_used+0x318>
  401852:	b8 00 00 00 00       	mov    $0x0,%eax
  401857:	e8 04 f4 ff ff       	callq  400c60 <printf@plt>
  40185c:	bf 02 00 00 00       	mov    $0x2,%edi
  401861:	e8 cf 05 00 00       	callq  401e35 <fail>
  401866:	bf 00 00 00 00       	mov    $0x0,%edi
  40186b:	e8 40 f5 ff ff       	callq  400db0 <exit@plt>
  401870:	48 8d 3d a9 18 00 00 	lea    0x18a9(%rip),%rdi        # 403120 <_IO_stdin_used+0x2f0>
  401877:	b8 00 00 00 00       	mov    $0x0,%eax
  40187c:	e8 df f3 ff ff       	callq  400c60 <printf@plt>
  401881:	bf 02 00 00 00       	mov    $0x2,%edi
  401886:	e8 ec 04 00 00       	callq  401d77 <validate>
  40188b:	eb d9                	jmp    401866 <touch2+0x33>

000000000040188d <hexmatch>:
  40188d:	41 54                	push   %r12
  40188f:	55                   	push   %rbp
  401890:	53                   	push   %rbx
  401891:	48 83 ec 70          	sub    $0x70,%rsp
  401895:	89 fd                	mov    %edi,%ebp
  401897:	48 89 f3             	mov    %rsi,%rbx
  40189a:	e8 71 f4 ff ff       	callq  400d10 <random@plt>
  40189f:	48 89 c1             	mov    %rax,%rcx
  4018a2:	48 ba 0b d7 a3 70 3d 	movabs $0xa3d70a3d70a3d70b,%rdx
  4018a9:	0a d7 a3 
  4018ac:	48 f7 ea             	imul   %rdx
  4018af:	48 01 ca             	add    %rcx,%rdx
  4018b2:	48 c1 fa 06          	sar    $0x6,%rdx
  4018b6:	48 89 c8             	mov    %rcx,%rax
  4018b9:	48 c1 f8 3f          	sar    $0x3f,%rax
  4018bd:	48 29 c2             	sub    %rax,%rdx
  4018c0:	48 8d 04 92          	lea    (%rdx,%rdx,4),%rax
  4018c4:	48 8d 14 80          	lea    (%rax,%rax,4),%rdx
  4018c8:	48 8d 04 95 00 00 00 	lea    0x0(,%rdx,4),%rax
  4018cf:	00 
  4018d0:	48 29 c1             	sub    %rax,%rcx
  4018d3:	4c 8d 24 0c          	lea    (%rsp,%rcx,1),%r12
  4018d7:	89 ea                	mov    %ebp,%edx
  4018d9:	48 8d 35 38 18 00 00 	lea    0x1838(%rip),%rsi        # 403118 <_IO_stdin_used+0x2e8>
  4018e0:	4c 89 e7             	mov    %r12,%rdi
  4018e3:	b8 00 00 00 00       	mov    $0x0,%eax
  4018e8:	e8 b3 f4 ff ff       	callq  400da0 <sprintf@plt>
  4018ed:	ba 09 00 00 00       	mov    $0x9,%edx
  4018f2:	4c 89 e6             	mov    %r12,%rsi
  4018f5:	48 89 df             	mov    %rbx,%rdi
  4018f8:	e8 13 f3 ff ff       	callq  400c10 <strncmp@plt>
  4018fd:	85 c0                	test   %eax,%eax
  4018ff:	0f 94 c0             	sete   %al
  401902:	0f b6 c0             	movzbl %al,%eax
  401905:	48 83 c4 70          	add    $0x70,%rsp
  401909:	5b                   	pop    %rbx
  40190a:	5d                   	pop    %rbp
  40190b:	41 5c                	pop    %r12
  40190d:	c3                   	retq   

000000000040190e <touch3>:
  40190e:	53                   	push   %rbx
  40190f:	48 89 fb             	mov    %rdi,%rbx
  401912:	c7 05 e0 3b 20 00 03 	movl   $0x3,0x203be0(%rip)        # 6054fc <vlevel>
  401919:	00 00 00 
  40191c:	48 89 fe             	mov    %rdi,%rsi
  40191f:	8b 3d df 3b 20 00    	mov    0x203bdf(%rip),%edi        # 605504 <cookie>
  401925:	e8 63 ff ff ff       	callq  40188d <hexmatch>
  40192a:	85 c0                	test   %eax,%eax
  40192c:	74 28                	je     401956 <touch3+0x48>
  40192e:	48 89 de             	mov    %rbx,%rsi
  401931:	48 8d 3d 38 18 00 00 	lea    0x1838(%rip),%rdi        # 403170 <_IO_stdin_used+0x340>
  401938:	b8 00 00 00 00       	mov    $0x0,%eax
  40193d:	e8 1e f3 ff ff       	callq  400c60 <printf@plt>
  401942:	bf 03 00 00 00       	mov    $0x3,%edi
  401947:	e8 2b 04 00 00       	callq  401d77 <validate>
  40194c:	bf 00 00 00 00       	mov    $0x0,%edi
  401951:	e8 5a f4 ff ff       	callq  400db0 <exit@plt>
  401956:	48 89 de             	mov    %rbx,%rsi
  401959:	48 8d 3d 38 18 00 00 	lea    0x1838(%rip),%rdi        # 403198 <_IO_stdin_used+0x368>
  401960:	b8 00 00 00 00       	mov    $0x0,%eax
  401965:	e8 f6 f2 ff ff       	callq  400c60 <printf@plt>
  40196a:	bf 03 00 00 00       	mov    $0x3,%edi
  40196f:	e8 c1 04 00 00       	callq  401e35 <fail>
  401974:	eb d6                	jmp    40194c <touch3+0x3e>

0000000000401976 <test>:
  401976:	48 83 ec 08          	sub    $0x8,%rsp
  40197a:	b8 00 00 00 00       	mov    $0x0,%eax
  40197f:	e8 6b fe ff ff       	callq  4017ef <getbuf>
  401984:	89 c6                	mov    %eax,%esi
  401986:	48 8d 3d 33 18 00 00 	lea    0x1833(%rip),%rdi        # 4031c0 <_IO_stdin_used+0x390>
  40198d:	b8 00 00 00 00       	mov    $0x0,%eax
  401992:	e8 c9 f2 ff ff       	callq  400c60 <printf@plt>
  401997:	48 83 c4 08          	add    $0x8,%rsp
  40199b:	c3                   	retq   

000000000040199c <start_farm>:
  40199c:	b8 01 00 00 00       	mov    $0x1,%eax
  4019a1:	c3                   	retq   

00000000004019a2 <setval_488>:  ----- popq %rax
  4019a2:	c7 07 58 90 90 c3    	movl   $0xc3909058,(%rdi)
  4019a8:	c3                   	retq   

00000000004019a9 <getval_169>: ------ nop
  4019a9:	b8 2f 3d d8 90       	mov    $0x90d83d2f,%eax
  4019ae:	c3                   	retq   

00000000004019af <setval_452>:  ----- movq %rax, %rdi
  4019af:	c7 07 48 89 c7 c3    	movl   $0xc3c78948,(%rdi)
  4019b5:	c3                   	retq   

00000000004019b6 <setval_121>: ------ movq %rax, %rdi
  4019b6:	c7 07 48 89 c7 c1    	movl   $0xc1c78948,(%rdi)
  4019bc:	c3                   	retq   

00000000004019bd <addval_166>:
  4019bd:	8d 87 7e 48 89 c7    	lea    -0x3876b782(%rdi),%eax
  4019c3:	c3                   	retq   

00000000004019c4 <getval_414>: ----- nop
  4019c4:	b8 48 88 c7 90       	mov    $0x90c78848,%eax
  4019c9:	c3                   	retq   

00000000004019ca <getval_137>: ----- popq %rax
  4019ca:	b8 c3 58 c3 9f       	mov    $0x9fc358c3,%eax
  4019cf:	c3                   	retq   

00000000004019d0 <getval_347>: ----- nop popq %rax
  4019d0:	b8 58 c2 6f 4f       	mov    $0x4f6fc258,%eax
  4019d5:	c3                   	retq   

00000000004019d6 <mid_farm>:
  4019d6:	b8 01 00 00 00       	mov    $0x1,%eax
  4019db:	c3                   	retq   

00000000004019dc <add_xy>:
  4019dc:	48 8d 04 37          	lea    (%rdi,%rsi,1),%rax
  4019e0:	c3                   	retq   

00000000004019e1 <addval_461>: ----- movel %eax, %esp
  4019e1:	8d 87 48 89 e0 c7    	lea    -0x381f76b8(%rdi),%eax
  4019e7:	c3                   	retq   

00000000004019e8 <addval_380>: ----- movl %ecx, %edx
  4019e8:	8d 87 89 ca 18 d2    	lea    -0x2de73577(%rdi),%eax
  4019ee:	c3                   	retq   

00000000004019ef <addval_294>: ------ 
  4019ef:	8d 87 41 b6 81 c1    	lea    -0x3e7e49bf(%rdi),%eax
  4019f5:	c3                   	retq   

00000000004019f6 <addval_348>: ----- movl %esp, %eax
  4019f6:	8d 87 49 89 e0 c3    	lea    -0x3c1f76b7(%rdi),%eax
  4019fc:	c3                   	retq   

00000000004019fd <getval_228>:
  4019fd:	b8 09 c1 08 c0       	mov    $0xc008c109,%eax
  401a02:	c3                   	retq   

0000000000401a03 <setval_231>: ----- movl %edx, %esi
  401a03:	c7 07 89 d6 a4 d2    	movl   $0xd2a4d689,(%rdi)
  401a09:	c3                   	retq   

0000000000401a0a <setval_113>:
  401a0a:	c7 07 89 d6 60 c9    	movl   $0xc960d689,(%rdi)
  401a10:	c3                   	retq   

0000000000401a11 <getval_109>:
  401a11:	b8 89 ca 78 c9       	mov    $0xc978ca89,%eax
  401a16:	c3                   	retq   

0000000000401a17 <addval_401>:
  401a17:	8d 87 8d d6 08 db    	lea    -0x24f72973(%rdi),%eax
  401a1d:	c3                   	retq   

0000000000401a1e <setval_473>:
  401a1e:	c7 07 89 d6 18 c9    	movl   $0xc918d689,(%rdi)
  401a24:	c3                   	retq   

0000000000401a25 <getval_220>:
  401a25:	b8 48 89 e0 c7       	mov    $0xc7e08948,%eax
  401a2a:	c3                   	retq   

0000000000401a2b <getval_300>:
  401a2b:	b8 89 c1 20 c9       	mov    $0xc920c189,%eax
  401a30:	c3                   	retq   

0000000000401a31 <getval_292>:
  401a31:	b8 8d c1 08 d2       	mov    $0xd208c18d,%eax
  401a36:	c3                   	retq   

0000000000401a37 <addval_366>:
  401a37:	8d 87 a3 48 89 e0    	lea    -0x1f76b75d(%rdi),%eax
  401a3d:	c3                   	retq   

0000000000401a3e <getval_407>:
  401a3e:	b8 16 89 ca 92       	mov    $0x92ca8916,%eax
  401a43:	c3                   	retq   

0000000000401a44 <setval_225>:
  401a44:	c7 07 89 d6 08 d2    	movl   $0xd208d689,(%rdi)
  401a4a:	c3                   	retq   

0000000000401a4b <setval_351>:
  401a4b:	c7 07 dd 99 c1 c3    	movl   $0xc3c199dd,(%rdi)
  401a51:	c3                   	retq   

0000000000401a52 <addval_272>:
  401a52:	8d 87 48 89 e0 c7    	lea    -0x381f76b8(%rdi),%eax
  401a58:	c3                   	retq   

0000000000401a59 <setval_209>:
  401a59:	c7 07 89 ca 08 d2    	movl   $0xd208ca89,(%rdi)
  401a5f:	c3                   	retq   

0000000000401a60 <addval_133>:
  401a60:	8d 87 99 d6 08 c9    	lea    -0x36f72967(%rdi),%eax
  401a66:	c3                   	retq   

0000000000401a67 <setval_103>:
  401a67:	c7 07 49 89 e0 90    	movl   $0x90e08949,(%rdi)
  401a6d:	c3                   	retq   

0000000000401a6e <addval_464>:
  401a6e:	8d 87 8d ca 20 d2    	lea    -0x2ddf3573(%rdi),%eax
  401a74:	c3                   	retq   

0000000000401a75 <getval_279>:
  401a75:	b8 48 89 e0 90       	mov    $0x90e08948,%eax
  401a7a:	c3                   	retq   

0000000000401a7b <getval_336>:
  401a7b:	b8 89 d6 30 c9       	mov    $0xc930d689,%eax
  401a80:	c3                   	retq   

0000000000401a81 <addval_115>:
  401a81:	8d 87 48 89 e0 c2    	lea    -0x3d1f76b8(%rdi),%eax
  401a87:	c3                   	retq   

0000000000401a88 <setval_128>:
  401a88:	c7 07 09 ca 20 c9    	movl   $0xc920ca09,(%rdi)
  401a8e:	c3                   	retq   

0000000000401a8f <setval_354>:
  401a8f:	c7 07 89 ca 08 c9    	movl   $0xc908ca89,(%rdi)
  401a95:	c3                   	retq   

0000000000401a96 <setval_477>:
  401a96:	c7 07 89 d6 38 db    	movl   $0xdb38d689,(%rdi)
  401a9c:	c3                   	retq   

0000000000401a9d <getval_437>:
  401a9d:	b8 89 c1 48 c9       	mov    $0xc948c189,%eax
  401aa2:	c3                   	retq   

0000000000401aa3 <addval_143>:
  401aa3:	8d 87 52 89 ca 91    	lea    -0x6e3576ae(%rdi),%eax
  401aa9:	c3                   	retq   

0000000000401aaa <getval_362>:
  401aaa:	b8 35 89 c1 90       	mov    $0x90c18935,%eax
  401aaf:	c3                   	retq   

0000000000401ab0 <addval_375>:
  401ab0:	8d 87 99 c1 38 db    	lea    -0x24c73e67(%rdi),%eax
  401ab6:	c3                   	retq   

0000000000401ab7 <end_farm>:
  401ab7:	b8 01 00 00 00       	mov    $0x1,%eax
  401abc:	c3                   	retq   

0000000000401abd <save_char>:
  401abd:	8b 05 61 46 20 00    	mov    0x204661(%rip),%eax        # 606124 <gets_cnt>
  401ac3:	3d ff 03 00 00       	cmp    $0x3ff,%eax
  401ac8:	7f 4a                	jg     401b14 <save_char+0x57>
  401aca:	8d 14 40             	lea    (%rax,%rax,2),%edx
  401acd:	89 f9                	mov    %edi,%ecx
  401acf:	c0 e9 04             	shr    $0x4,%cl
  401ad2:	4c 8d 05 07 1a 00 00 	lea    0x1a07(%rip),%r8        # 4034e0 <trans_char>
  401ad9:	83 e1 0f             	and    $0xf,%ecx
  401adc:	45 0f b6 0c 08       	movzbl (%r8,%rcx,1),%r9d
  401ae1:	48 8d 0d 38 3a 20 00 	lea    0x203a38(%rip),%rcx        # 605520 <gets_buf>
  401ae8:	48 63 f2             	movslq %edx,%rsi
  401aeb:	44 88 0c 31          	mov    %r9b,(%rcx,%rsi,1)
  401aef:	8d 72 01             	lea    0x1(%rdx),%esi
  401af2:	83 e7 0f             	and    $0xf,%edi
  401af5:	41 0f b6 3c 38       	movzbl (%r8,%rdi,1),%edi
  401afa:	48 63 f6             	movslq %esi,%rsi
  401afd:	40 88 3c 31          	mov    %dil,(%rcx,%rsi,1)
  401b01:	83 c2 02             	add    $0x2,%edx
  401b04:	48 63 d2             	movslq %edx,%rdx
  401b07:	c6 04 11 20          	movb   $0x20,(%rcx,%rdx,1)
  401b0b:	83 c0 01             	add    $0x1,%eax
  401b0e:	89 05 10 46 20 00    	mov    %eax,0x204610(%rip)        # 606124 <gets_cnt>
  401b14:	f3 c3                	repz retq 

0000000000401b16 <save_term>:
  401b16:	8b 05 08 46 20 00    	mov    0x204608(%rip),%eax        # 606124 <gets_cnt>
  401b1c:	8d 04 40             	lea    (%rax,%rax,2),%eax
  401b1f:	48 98                	cltq   
  401b21:	48 8d 15 f8 39 20 00 	lea    0x2039f8(%rip),%rdx        # 605520 <gets_buf>
  401b28:	c6 04 02 00          	movb   $0x0,(%rdx,%rax,1)
  401b2c:	c3                   	retq   

0000000000401b2d <check_fail>:
  401b2d:	48 83 ec 08          	sub    $0x8,%rsp
  401b31:	0f be 35 f0 45 20 00 	movsbl 0x2045f0(%rip),%esi        # 606128 <target_prefix>
  401b38:	48 8d 0d e1 39 20 00 	lea    0x2039e1(%rip),%rcx        # 605520 <gets_buf>
  401b3f:	8b 15 b3 39 20 00    	mov    0x2039b3(%rip),%edx        # 6054f8 <check_level>
  401b45:	48 8d 3d 97 16 00 00 	lea    0x1697(%rip),%rdi        # 4031e3 <_IO_stdin_used+0x3b3>
  401b4c:	b8 00 00 00 00       	mov    $0x0,%eax
  401b51:	e8 0a f1 ff ff       	callq  400c60 <printf@plt>
  401b56:	bf 01 00 00 00       	mov    $0x1,%edi
  401b5b:	e8 50 f2 ff ff       	callq  400db0 <exit@plt>

0000000000401b60 <Gets>:
  401b60:	41 54                	push   %r12
  401b62:	55                   	push   %rbp
  401b63:	53                   	push   %rbx
  401b64:	49 89 fc             	mov    %rdi,%r12
  401b67:	c7 05 b3 45 20 00 00 	movl   $0x0,0x2045b3(%rip)        # 606124 <gets_cnt>
  401b6e:	00 00 00 
  401b71:	48 89 fb             	mov    %rdi,%rbx
  401b74:	eb 11                	jmp    401b87 <Gets+0x27>
  401b76:	48 8d 6b 01          	lea    0x1(%rbx),%rbp
  401b7a:	88 03                	mov    %al,(%rbx)
  401b7c:	0f b6 f8             	movzbl %al,%edi
  401b7f:	e8 39 ff ff ff       	callq  401abd <save_char>
  401b84:	48 89 eb             	mov    %rbp,%rbx
  401b87:	48 8b 3d 62 39 20 00 	mov    0x203962(%rip),%rdi        # 6054f0 <infile>
  401b8e:	e8 8d f1 ff ff       	callq  400d20 <_IO_getc@plt>
  401b93:	83 f8 ff             	cmp    $0xffffffff,%eax
  401b96:	74 05                	je     401b9d <Gets+0x3d>
  401b98:	83 f8 0a             	cmp    $0xa,%eax
  401b9b:	75 d9                	jne    401b76 <Gets+0x16>
  401b9d:	c6 03 00             	movb   $0x0,(%rbx)
  401ba0:	b8 00 00 00 00       	mov    $0x0,%eax
  401ba5:	e8 6c ff ff ff       	callq  401b16 <save_term>
  401baa:	4c 89 e0             	mov    %r12,%rax
  401bad:	5b                   	pop    %rbx
  401bae:	5d                   	pop    %rbp
  401baf:	41 5c                	pop    %r12
  401bb1:	c3                   	retq   

0000000000401bb2 <notify_server>:
  401bb2:	83 3d 4f 39 20 00 00 	cmpl   $0x0,0x20394f(%rip)        # 605508 <is_checker>
  401bb9:	0f 85 de 00 00 00    	jne    401c9d <notify_server+0xeb>
  401bbf:	55                   	push   %rbp
  401bc0:	53                   	push   %rbx
  401bc1:	48 81 ec 08 40 00 00 	sub    $0x4008,%rsp
  401bc8:	89 fb                	mov    %edi,%ebx
  401bca:	8b 05 54 45 20 00    	mov    0x204554(%rip),%eax        # 606124 <gets_cnt>
  401bd0:	83 c0 64             	add    $0x64,%eax
  401bd3:	3d 00 20 00 00       	cmp    $0x2000,%eax
  401bd8:	0f 8f c1 00 00 00    	jg     401c9f <notify_server+0xed>
  401bde:	44 0f be 0d 42 45 20 	movsbl 0x204542(%rip),%r9d        # 606128 <target_prefix>
  401be5:	00 
  401be6:	83 3d 9b 38 20 00 00 	cmpl   $0x0,0x20389b(%rip)        # 605488 <notify>
  401bed:	0f 84 c7 00 00 00    	je     401cba <notify_server+0x108>
  401bf3:	44 8b 05 06 39 20 00 	mov    0x203906(%rip),%r8d        # 605500 <authkey>
  401bfa:	85 db                	test   %ebx,%ebx
  401bfc:	0f 84 c3 00 00 00    	je     401cc5 <notify_server+0x113>
  401c02:	48 8d 2d f0 15 00 00 	lea    0x15f0(%rip),%rbp        # 4031f9 <_IO_stdin_used+0x3c9>
  401c09:	48 8d bc 24 00 20 00 	lea    0x2000(%rsp),%rdi
  401c10:	00 
  401c11:	48 8d 05 08 39 20 00 	lea    0x203908(%rip),%rax        # 605520 <gets_buf>
  401c18:	50                   	push   %rax
  401c19:	56                   	push   %rsi
  401c1a:	48 89 e9             	mov    %rbp,%rcx
  401c1d:	8b 15 0d 35 20 00    	mov    0x20350d(%rip),%edx        # 605130 <target_id>
  401c23:	48 8d 35 d9 15 00 00 	lea    0x15d9(%rip),%rsi        # 403203 <_IO_stdin_used+0x3d3>
  401c2a:	b8 00 00 00 00       	mov    $0x0,%eax
  401c2f:	e8 6c f1 ff ff       	callq  400da0 <sprintf@plt>
  401c34:	48 83 c4 10          	add    $0x10,%rsp
  401c38:	83 3d 49 38 20 00 00 	cmpl   $0x0,0x203849(%rip)        # 605488 <notify>
  401c3f:	0f 84 b8 00 00 00    	je     401cfd <notify_server+0x14b>
  401c45:	85 db                	test   %ebx,%ebx
  401c47:	0f 84 a2 00 00 00    	je     401cef <notify_server+0x13d>
  401c4d:	48 8d 8c 24 00 20 00 	lea    0x2000(%rsp),%rcx
  401c54:	00 
  401c55:	49 89 e1             	mov    %rsp,%r9
  401c58:	41 b8 00 00 00 00    	mov    $0x0,%r8d
  401c5e:	48 8b 15 e3 34 20 00 	mov    0x2034e3(%rip),%rdx        # 605148 <lab>
  401c65:	48 8b 35 e4 34 20 00 	mov    0x2034e4(%rip),%rsi        # 605150 <course>
  401c6c:	48 8b 3d cd 34 20 00 	mov    0x2034cd(%rip),%rdi        # 605140 <user_id>
  401c73:	e8 6e 10 00 00       	callq  402ce6 <driver_post>
  401c78:	85 c0                	test   %eax,%eax
  401c7a:	78 55                	js     401cd1 <notify_server+0x11f>
  401c7c:	48 8d 3d c5 16 00 00 	lea    0x16c5(%rip),%rdi        # 403348 <_IO_stdin_used+0x518>
  401c83:	e8 a8 ef ff ff       	callq  400c30 <puts@plt>
  401c88:	48 8d 3d 9c 15 00 00 	lea    0x159c(%rip),%rdi        # 40322b <_IO_stdin_used+0x3fb>
  401c8f:	e8 9c ef ff ff       	callq  400c30 <puts@plt>
  401c94:	48 81 c4 08 40 00 00 	add    $0x4008,%rsp
  401c9b:	5b                   	pop    %rbx
  401c9c:	5d                   	pop    %rbp
  401c9d:	f3 c3                	repz retq 
  401c9f:	48 8d 3d 72 16 00 00 	lea    0x1672(%rip),%rdi        # 403318 <_IO_stdin_used+0x4e8>
  401ca6:	b8 00 00 00 00       	mov    $0x0,%eax
  401cab:	e8 b0 ef ff ff       	callq  400c60 <printf@plt>
  401cb0:	bf 01 00 00 00       	mov    $0x1,%edi
  401cb5:	e8 f6 f0 ff ff       	callq  400db0 <exit@plt>
  401cba:	41 b8 ff ff ff ff    	mov    $0xffffffff,%r8d
  401cc0:	e9 35 ff ff ff       	jmpq   401bfa <notify_server+0x48>
  401cc5:	48 8d 2d 32 15 00 00 	lea    0x1532(%rip),%rbp        # 4031fe <_IO_stdin_used+0x3ce>
  401ccc:	e9 38 ff ff ff       	jmpq   401c09 <notify_server+0x57>
  401cd1:	48 89 e6             	mov    %rsp,%rsi
  401cd4:	48 8d 3d 44 15 00 00 	lea    0x1544(%rip),%rdi        # 40321f <_IO_stdin_used+0x3ef>
  401cdb:	b8 00 00 00 00       	mov    $0x0,%eax
  401ce0:	e8 7b ef ff ff       	callq  400c60 <printf@plt>
  401ce5:	bf 01 00 00 00       	mov    $0x1,%edi
  401cea:	e8 c1 f0 ff ff       	callq  400db0 <exit@plt>
  401cef:	48 8d 3d 3f 15 00 00 	lea    0x153f(%rip),%rdi        # 403235 <_IO_stdin_used+0x405>
  401cf6:	e8 35 ef ff ff       	callq  400c30 <puts@plt>
  401cfb:	eb 97                	jmp    401c94 <notify_server+0xe2>
  401cfd:	48 89 ee             	mov    %rbp,%rsi
  401d00:	48 8d 3d 79 16 00 00 	lea    0x1679(%rip),%rdi        # 403380 <_IO_stdin_used+0x550>
  401d07:	b8 00 00 00 00       	mov    $0x0,%eax
  401d0c:	e8 4f ef ff ff       	callq  400c60 <printf@plt>
  401d11:	48 8b 35 28 34 20 00 	mov    0x203428(%rip),%rsi        # 605140 <user_id>
  401d18:	48 8d 3d 1d 15 00 00 	lea    0x151d(%rip),%rdi        # 40323c <_IO_stdin_used+0x40c>
  401d1f:	b8 00 00 00 00       	mov    $0x0,%eax
  401d24:	e8 37 ef ff ff       	callq  400c60 <printf@plt>
  401d29:	48 8b 35 20 34 20 00 	mov    0x203420(%rip),%rsi        # 605150 <course>
  401d30:	48 8d 3d 12 15 00 00 	lea    0x1512(%rip),%rdi        # 403249 <_IO_stdin_used+0x419>
  401d37:	b8 00 00 00 00       	mov    $0x0,%eax
  401d3c:	e8 1f ef ff ff       	callq  400c60 <printf@plt>
  401d41:	48 8b 35 00 34 20 00 	mov    0x203400(%rip),%rsi        # 605148 <lab>
  401d48:	48 8d 3d 06 15 00 00 	lea    0x1506(%rip),%rdi        # 403255 <_IO_stdin_used+0x425>
  401d4f:	b8 00 00 00 00       	mov    $0x0,%eax
  401d54:	e8 07 ef ff ff       	callq  400c60 <printf@plt>
  401d59:	48 8d b4 24 00 20 00 	lea    0x2000(%rsp),%rsi
  401d60:	00 
  401d61:	48 8d 3d f6 14 00 00 	lea    0x14f6(%rip),%rdi        # 40325e <_IO_stdin_used+0x42e>
  401d68:	b8 00 00 00 00       	mov    $0x0,%eax
  401d6d:	e8 ee ee ff ff       	callq  400c60 <printf@plt>
  401d72:	e9 1d ff ff ff       	jmpq   401c94 <notify_server+0xe2>

0000000000401d77 <validate>:
  401d77:	53                   	push   %rbx
  401d78:	89 fb                	mov    %edi,%ebx
  401d7a:	83 3d 87 37 20 00 00 	cmpl   $0x0,0x203787(%rip)        # 605508 <is_checker>
  401d81:	74 68                	je     401deb <validate+0x74>
  401d83:	39 3d 73 37 20 00    	cmp    %edi,0x203773(%rip)        # 6054fc <vlevel>
  401d89:	75 2d                	jne    401db8 <validate+0x41>
  401d8b:	8b 35 67 37 20 00    	mov    0x203767(%rip),%esi        # 6054f8 <check_level>
  401d91:	39 f7                	cmp    %esi,%edi
  401d93:	75 39                	jne    401dce <validate+0x57>
  401d95:	0f be 35 8c 43 20 00 	movsbl 0x20438c(%rip),%esi        # 606128 <target_prefix>
  401d9c:	48 8d 0d 7d 37 20 00 	lea    0x20377d(%rip),%rcx        # 605520 <gets_buf>
  401da3:	89 fa                	mov    %edi,%edx
  401da5:	48 8d 3d dc 14 00 00 	lea    0x14dc(%rip),%rdi        # 403288 <_IO_stdin_used+0x458>
  401dac:	b8 00 00 00 00       	mov    $0x0,%eax
  401db1:	e8 aa ee ff ff       	callq  400c60 <printf@plt>
  401db6:	5b                   	pop    %rbx
  401db7:	c3                   	retq   
  401db8:	48 8d 3d ab 14 00 00 	lea    0x14ab(%rip),%rdi        # 40326a <_IO_stdin_used+0x43a>
  401dbf:	e8 6c ee ff ff       	callq  400c30 <puts@plt>
  401dc4:	b8 00 00 00 00       	mov    $0x0,%eax
  401dc9:	e8 5f fd ff ff       	callq  401b2d <check_fail>
  401dce:	89 fa                	mov    %edi,%edx
  401dd0:	48 8d 3d d1 15 00 00 	lea    0x15d1(%rip),%rdi        # 4033a8 <_IO_stdin_used+0x578>
  401dd7:	b8 00 00 00 00       	mov    $0x0,%eax
  401ddc:	e8 7f ee ff ff       	callq  400c60 <printf@plt>
  401de1:	b8 00 00 00 00       	mov    $0x0,%eax
  401de6:	e8 42 fd ff ff       	callq  401b2d <check_fail>
  401deb:	3b 3d 0b 37 20 00    	cmp    0x20370b(%rip),%edi        # 6054fc <vlevel>
  401df1:	74 1a                	je     401e0d <validate+0x96>
  401df3:	48 8d 3d 70 14 00 00 	lea    0x1470(%rip),%rdi        # 40326a <_IO_stdin_used+0x43a>
  401dfa:	e8 31 ee ff ff       	callq  400c30 <puts@plt>
  401dff:	89 de                	mov    %ebx,%esi
  401e01:	bf 00 00 00 00       	mov    $0x0,%edi
  401e06:	e8 a7 fd ff ff       	callq  401bb2 <notify_server>
  401e0b:	eb a9                	jmp    401db6 <validate+0x3f>
  401e0d:	0f be 15 14 43 20 00 	movsbl 0x204314(%rip),%edx        # 606128 <target_prefix>
  401e14:	89 fe                	mov    %edi,%esi
  401e16:	48 8d 3d b3 15 00 00 	lea    0x15b3(%rip),%rdi        # 4033d0 <_IO_stdin_used+0x5a0>
  401e1d:	b8 00 00 00 00       	mov    $0x0,%eax
  401e22:	e8 39 ee ff ff       	callq  400c60 <printf@plt>
  401e27:	89 de                	mov    %ebx,%esi
  401e29:	bf 01 00 00 00       	mov    $0x1,%edi
  401e2e:	e8 7f fd ff ff       	callq  401bb2 <notify_server>
  401e33:	eb 81                	jmp    401db6 <validate+0x3f>

0000000000401e35 <fail>:
  401e35:	48 83 ec 08          	sub    $0x8,%rsp
  401e39:	83 3d c8 36 20 00 00 	cmpl   $0x0,0x2036c8(%rip)        # 605508 <is_checker>
  401e40:	75 11                	jne    401e53 <fail+0x1e>
  401e42:	89 fe                	mov    %edi,%esi
  401e44:	bf 00 00 00 00       	mov    $0x0,%edi
  401e49:	e8 64 fd ff ff       	callq  401bb2 <notify_server>
  401e4e:	48 83 c4 08          	add    $0x8,%rsp
  401e52:	c3                   	retq   
  401e53:	b8 00 00 00 00       	mov    $0x0,%eax
  401e58:	e8 d0 fc ff ff       	callq  401b2d <check_fail>

0000000000401e5d <bushandler>:
  401e5d:	48 83 ec 08          	sub    $0x8,%rsp
  401e61:	83 3d a0 36 20 00 00 	cmpl   $0x0,0x2036a0(%rip)        # 605508 <is_checker>
  401e68:	74 16                	je     401e80 <bushandler+0x23>
  401e6a:	48 8d 3d 2c 14 00 00 	lea    0x142c(%rip),%rdi        # 40329d <_IO_stdin_used+0x46d>
  401e71:	e8 ba ed ff ff       	callq  400c30 <puts@plt>
  401e76:	b8 00 00 00 00       	mov    $0x0,%eax
  401e7b:	e8 ad fc ff ff       	callq  401b2d <check_fail>
  401e80:	48 8d 3d 81 15 00 00 	lea    0x1581(%rip),%rdi        # 403408 <_IO_stdin_used+0x5d8>
  401e87:	e8 a4 ed ff ff       	callq  400c30 <puts@plt>
  401e8c:	48 8d 3d 14 14 00 00 	lea    0x1414(%rip),%rdi        # 4032a7 <_IO_stdin_used+0x477>
  401e93:	e8 98 ed ff ff       	callq  400c30 <puts@plt>
  401e98:	be 00 00 00 00       	mov    $0x0,%esi
  401e9d:	bf 00 00 00 00       	mov    $0x0,%edi
  401ea2:	e8 0b fd ff ff       	callq  401bb2 <notify_server>
  401ea7:	bf 01 00 00 00       	mov    $0x1,%edi
  401eac:	e8 ff ee ff ff       	callq  400db0 <exit@plt>

0000000000401eb1 <seghandler>:
  401eb1:	48 83 ec 08          	sub    $0x8,%rsp
  401eb5:	83 3d 4c 36 20 00 00 	cmpl   $0x0,0x20364c(%rip)        # 605508 <is_checker>
  401ebc:	74 16                	je     401ed4 <seghandler+0x23>
  401ebe:	48 8d 3d f8 13 00 00 	lea    0x13f8(%rip),%rdi        # 4032bd <_IO_stdin_used+0x48d>
  401ec5:	e8 66 ed ff ff       	callq  400c30 <puts@plt>
  401eca:	b8 00 00 00 00       	mov    $0x0,%eax
  401ecf:	e8 59 fc ff ff       	callq  401b2d <check_fail>
  401ed4:	48 8d 3d 4d 15 00 00 	lea    0x154d(%rip),%rdi        # 403428 <_IO_stdin_used+0x5f8>
  401edb:	e8 50 ed ff ff       	callq  400c30 <puts@plt>
  401ee0:	48 8d 3d c0 13 00 00 	lea    0x13c0(%rip),%rdi        # 4032a7 <_IO_stdin_used+0x477>
  401ee7:	e8 44 ed ff ff       	callq  400c30 <puts@plt>
  401eec:	be 00 00 00 00       	mov    $0x0,%esi
  401ef1:	bf 00 00 00 00       	mov    $0x0,%edi
  401ef6:	e8 b7 fc ff ff       	callq  401bb2 <notify_server>
  401efb:	bf 01 00 00 00       	mov    $0x1,%edi
  401f00:	e8 ab ee ff ff       	callq  400db0 <exit@plt>

0000000000401f05 <illegalhandler>:
  401f05:	48 83 ec 08          	sub    $0x8,%rsp
  401f09:	83 3d f8 35 20 00 00 	cmpl   $0x0,0x2035f8(%rip)        # 605508 <is_checker>
  401f10:	74 16                	je     401f28 <illegalhandler+0x23>
  401f12:	48 8d 3d b7 13 00 00 	lea    0x13b7(%rip),%rdi        # 4032d0 <_IO_stdin_used+0x4a0>
  401f19:	e8 12 ed ff ff       	callq  400c30 <puts@plt>
  401f1e:	b8 00 00 00 00       	mov    $0x0,%eax
  401f23:	e8 05 fc ff ff       	callq  401b2d <check_fail>
  401f28:	48 8d 3d 21 15 00 00 	lea    0x1521(%rip),%rdi        # 403450 <_IO_stdin_used+0x620>
  401f2f:	e8 fc ec ff ff       	callq  400c30 <puts@plt>
  401f34:	48 8d 3d 6c 13 00 00 	lea    0x136c(%rip),%rdi        # 4032a7 <_IO_stdin_used+0x477>
  401f3b:	e8 f0 ec ff ff       	callq  400c30 <puts@plt>
  401f40:	be 00 00 00 00       	mov    $0x0,%esi
  401f45:	bf 00 00 00 00       	mov    $0x0,%edi
  401f4a:	e8 63 fc ff ff       	callq  401bb2 <notify_server>
  401f4f:	bf 01 00 00 00       	mov    $0x1,%edi
  401f54:	e8 57 ee ff ff       	callq  400db0 <exit@plt>

0000000000401f59 <sigalrmhandler>:
  401f59:	48 83 ec 08          	sub    $0x8,%rsp
  401f5d:	83 3d a4 35 20 00 00 	cmpl   $0x0,0x2035a4(%rip)        # 605508 <is_checker>
  401f64:	74 16                	je     401f7c <sigalrmhandler+0x23>
  401f66:	48 8d 3d 77 13 00 00 	lea    0x1377(%rip),%rdi        # 4032e4 <_IO_stdin_used+0x4b4>
  401f6d:	e8 be ec ff ff       	callq  400c30 <puts@plt>
  401f72:	b8 00 00 00 00       	mov    $0x0,%eax
  401f77:	e8 b1 fb ff ff       	callq  401b2d <check_fail>
  401f7c:	be 05 00 00 00       	mov    $0x5,%esi
  401f81:	48 8d 3d f8 14 00 00 	lea    0x14f8(%rip),%rdi        # 403480 <_IO_stdin_used+0x650>
  401f88:	b8 00 00 00 00       	mov    $0x0,%eax
  401f8d:	e8 ce ec ff ff       	callq  400c60 <printf@plt>
  401f92:	be 00 00 00 00       	mov    $0x0,%esi
  401f97:	bf 00 00 00 00       	mov    $0x0,%edi
  401f9c:	e8 11 fc ff ff       	callq  401bb2 <notify_server>
  401fa1:	bf 01 00 00 00       	mov    $0x1,%edi
  401fa6:	e8 05 ee ff ff       	callq  400db0 <exit@plt>

0000000000401fab <launch>:
  401fab:	55                   	push   %rbp
  401fac:	48 89 e5             	mov    %rsp,%rbp
  401faf:	48 89 fa             	mov    %rdi,%rdx
  401fb2:	48 8d 47 1e          	lea    0x1e(%rdi),%rax
  401fb6:	48 83 e0 f0          	and    $0xfffffffffffffff0,%rax
  401fba:	48 29 c4             	sub    %rax,%rsp
  401fbd:	48 8d 7c 24 0f       	lea    0xf(%rsp),%rdi
  401fc2:	48 83 e7 f0          	and    $0xfffffffffffffff0,%rdi
  401fc6:	be f4 00 00 00       	mov    $0xf4,%esi
  401fcb:	e8 a0 ec ff ff       	callq  400c70 <memset@plt>
  401fd0:	48 8b 05 c9 34 20 00 	mov    0x2034c9(%rip),%rax        # 6054a0 <stdin@@GLIBC_2.2.5>
  401fd7:	48 39 05 12 35 20 00 	cmp    %rax,0x203512(%rip)        # 6054f0 <infile>
  401fde:	74 2b                	je     40200b <launch+0x60>
  401fe0:	c7 05 12 35 20 00 00 	movl   $0x0,0x203512(%rip)        # 6054fc <vlevel>
  401fe7:	00 00 00 
  401fea:	b8 00 00 00 00       	mov    $0x0,%eax
  401fef:	e8 82 f9 ff ff       	callq  401976 <test>
  401ff4:	83 3d 0d 35 20 00 00 	cmpl   $0x0,0x20350d(%rip)        # 605508 <is_checker>
  401ffb:	75 21                	jne    40201e <launch+0x73>
  401ffd:	48 8d 3d 00 13 00 00 	lea    0x1300(%rip),%rdi        # 403304 <_IO_stdin_used+0x4d4>
  402004:	e8 27 ec ff ff       	callq  400c30 <puts@plt>
  402009:	c9                   	leaveq 
  40200a:	c3                   	retq   
  40200b:	48 8d 3d da 12 00 00 	lea    0x12da(%rip),%rdi        # 4032ec <_IO_stdin_used+0x4bc>
  402012:	b8 00 00 00 00       	mov    $0x0,%eax
  402017:	e8 44 ec ff ff       	callq  400c60 <printf@plt>
  40201c:	eb c2                	jmp    401fe0 <launch+0x35>
  40201e:	48 8d 3d d4 12 00 00 	lea    0x12d4(%rip),%rdi        # 4032f9 <_IO_stdin_used+0x4c9>
  402025:	e8 06 ec ff ff       	callq  400c30 <puts@plt>
  40202a:	b8 00 00 00 00       	mov    $0x0,%eax
  40202f:	e8 f9 fa ff ff       	callq  401b2d <check_fail>

0000000000402034 <stable_launch>:
  402034:	53                   	push   %rbx
  402035:	48 89 3d ac 34 20 00 	mov    %rdi,0x2034ac(%rip)        # 6054e8 <global_offset>
  40203c:	41 b9 00 00 00 00    	mov    $0x0,%r9d
  402042:	41 b8 00 00 00 00    	mov    $0x0,%r8d
  402048:	b9 32 01 00 00       	mov    $0x132,%ecx
  40204d:	ba 07 00 00 00       	mov    $0x7,%edx
  402052:	be 00 00 10 00       	mov    $0x100000,%esi
  402057:	bf 00 60 58 55       	mov    $0x55586000,%edi
  40205c:	e8 ef eb ff ff       	callq  400c50 <mmap@plt>
  402061:	48 89 c3             	mov    %rax,%rbx
  402064:	48 3d 00 60 58 55    	cmp    $0x55586000,%rax
  40206a:	75 43                	jne    4020af <stable_launch+0x7b>
  40206c:	48 8d 90 f8 ff 0f 00 	lea    0xffff8(%rax),%rdx
  402073:	48 89 15 b6 40 20 00 	mov    %rdx,0x2040b6(%rip)        # 606130 <stack_top>
  40207a:	48 89 e0             	mov    %rsp,%rax
  40207d:	48 89 d4             	mov    %rdx,%rsp
  402080:	48 89 c2             	mov    %rax,%rdx
  402083:	48 89 15 56 34 20 00 	mov    %rdx,0x203456(%rip)        # 6054e0 <global_save_stack>
  40208a:	48 8b 3d 57 34 20 00 	mov    0x203457(%rip),%rdi        # 6054e8 <global_offset>
  402091:	e8 15 ff ff ff       	callq  401fab <launch>
  402096:	48 8b 05 43 34 20 00 	mov    0x203443(%rip),%rax        # 6054e0 <global_save_stack>
  40209d:	48 89 c4             	mov    %rax,%rsp
  4020a0:	be 00 00 10 00       	mov    $0x100000,%esi
  4020a5:	48 89 df             	mov    %rbx,%rdi
  4020a8:	e8 93 ec ff ff       	callq  400d40 <munmap@plt>
  4020ad:	5b                   	pop    %rbx
  4020ae:	c3                   	retq   
  4020af:	be 00 00 10 00       	mov    $0x100000,%esi
  4020b4:	48 89 c7             	mov    %rax,%rdi
  4020b7:	e8 84 ec ff ff       	callq  400d40 <munmap@plt>
  4020bc:	ba 00 60 58 55       	mov    $0x55586000,%edx
  4020c1:	48 8d 35 f0 13 00 00 	lea    0x13f0(%rip),%rsi        # 4034b8 <_IO_stdin_used+0x688>
  4020c8:	48 8b 3d f1 33 20 00 	mov    0x2033f1(%rip),%rdi        # 6054c0 <stderr@@GLIBC_2.2.5>
  4020cf:	b8 00 00 00 00       	mov    $0x0,%eax
  4020d4:	e8 f7 eb ff ff       	callq  400cd0 <fprintf@plt>
  4020d9:	bf 01 00 00 00       	mov    $0x1,%edi
  4020de:	e8 cd ec ff ff       	callq  400db0 <exit@plt>

00000000004020e3 <rio_readinitb>:
  4020e3:	89 37                	mov    %esi,(%rdi)
  4020e5:	c7 47 04 00 00 00 00 	movl   $0x0,0x4(%rdi)
  4020ec:	48 8d 47 10          	lea    0x10(%rdi),%rax
  4020f0:	48 89 47 08          	mov    %rax,0x8(%rdi)
  4020f4:	c3                   	retq   

00000000004020f5 <sigalrm_handler>:
  4020f5:	48 83 ec 08          	sub    $0x8,%rsp
  4020f9:	ba 00 00 00 00       	mov    $0x0,%edx
  4020fe:	48 8d 35 eb 13 00 00 	lea    0x13eb(%rip),%rsi        # 4034f0 <trans_char+0x10>
  402105:	48 8b 3d b4 33 20 00 	mov    0x2033b4(%rip),%rdi        # 6054c0 <stderr@@GLIBC_2.2.5>
  40210c:	b8 00 00 00 00       	mov    $0x0,%eax
  402111:	e8 ba eb ff ff       	callq  400cd0 <fprintf@plt>
  402116:	bf 01 00 00 00       	mov    $0x1,%edi
  40211b:	e8 90 ec ff ff       	callq  400db0 <exit@plt>

0000000000402120 <urlencode>:
  402120:	41 54                	push   %r12
  402122:	55                   	push   %rbp
  402123:	53                   	push   %rbx
  402124:	48 83 ec 10          	sub    $0x10,%rsp
  402128:	48 89 fb             	mov    %rdi,%rbx
  40212b:	48 89 f5             	mov    %rsi,%rbp
  40212e:	b8 00 00 00 00       	mov    $0x0,%eax
  402133:	48 c7 c1 ff ff ff ff 	mov    $0xffffffffffffffff,%rcx
  40213a:	f2 ae                	repnz scas %es:(%rdi),%al
  40213c:	48 f7 d1             	not    %rcx
  40213f:	8d 41 ff             	lea    -0x1(%rcx),%eax
  402142:	eb 0e                	jmp    402152 <urlencode+0x32>
  402144:	88 55 00             	mov    %dl,0x0(%rbp)
  402147:	48 8d 6d 01          	lea    0x1(%rbp),%rbp
  40214b:	48 83 c3 01          	add    $0x1,%rbx
  40214f:	44 89 e0             	mov    %r12d,%eax
  402152:	44 8d 60 ff          	lea    -0x1(%rax),%r12d
  402156:	85 c0                	test   %eax,%eax
  402158:	0f 84 95 00 00 00    	je     4021f3 <urlencode+0xd3>
  40215e:	0f b6 13             	movzbl (%rbx),%edx
  402161:	80 fa 2a             	cmp    $0x2a,%dl
  402164:	0f 94 c1             	sete   %cl
  402167:	80 fa 2d             	cmp    $0x2d,%dl
  40216a:	0f 94 c0             	sete   %al
  40216d:	08 c1                	or     %al,%cl
  40216f:	75 d3                	jne    402144 <urlencode+0x24>
  402171:	80 fa 2e             	cmp    $0x2e,%dl
  402174:	74 ce                	je     402144 <urlencode+0x24>
  402176:	80 fa 5f             	cmp    $0x5f,%dl
  402179:	74 c9                	je     402144 <urlencode+0x24>
  40217b:	8d 42 d0             	lea    -0x30(%rdx),%eax
  40217e:	3c 09                	cmp    $0x9,%al
  402180:	76 c2                	jbe    402144 <urlencode+0x24>
  402182:	8d 42 bf             	lea    -0x41(%rdx),%eax
  402185:	3c 19                	cmp    $0x19,%al
  402187:	76 bb                	jbe    402144 <urlencode+0x24>
  402189:	8d 42 9f             	lea    -0x61(%rdx),%eax
  40218c:	3c 19                	cmp    $0x19,%al
  40218e:	76 b4                	jbe    402144 <urlencode+0x24>
  402190:	80 fa 20             	cmp    $0x20,%dl
  402193:	74 4c                	je     4021e1 <urlencode+0xc1>
  402195:	8d 42 e0             	lea    -0x20(%rdx),%eax
  402198:	3c 5f                	cmp    $0x5f,%al
  40219a:	0f 96 c1             	setbe  %cl
  40219d:	80 fa 09             	cmp    $0x9,%dl
  4021a0:	0f 94 c0             	sete   %al
  4021a3:	08 c1                	or     %al,%cl
  4021a5:	74 47                	je     4021ee <urlencode+0xce>
  4021a7:	0f b6 d2             	movzbl %dl,%edx
  4021aa:	48 8d 7c 24 08       	lea    0x8(%rsp),%rdi
  4021af:	48 8d 35 d2 13 00 00 	lea    0x13d2(%rip),%rsi        # 403588 <trans_char+0xa8>
  4021b6:	b8 00 00 00 00       	mov    $0x0,%eax
  4021bb:	e8 e0 eb ff ff       	callq  400da0 <sprintf@plt>
  4021c0:	0f b6 44 24 08       	movzbl 0x8(%rsp),%eax
  4021c5:	88 45 00             	mov    %al,0x0(%rbp)
  4021c8:	0f b6 44 24 09       	movzbl 0x9(%rsp),%eax
  4021cd:	88 45 01             	mov    %al,0x1(%rbp)
  4021d0:	0f b6 44 24 0a       	movzbl 0xa(%rsp),%eax
  4021d5:	88 45 02             	mov    %al,0x2(%rbp)
  4021d8:	48 8d 6d 03          	lea    0x3(%rbp),%rbp
  4021dc:	e9 6a ff ff ff       	jmpq   40214b <urlencode+0x2b>
  4021e1:	c6 45 00 2b          	movb   $0x2b,0x0(%rbp)
  4021e5:	48 8d 6d 01          	lea    0x1(%rbp),%rbp
  4021e9:	e9 5d ff ff ff       	jmpq   40214b <urlencode+0x2b>
  4021ee:	b8 ff ff ff ff       	mov    $0xffffffff,%eax
  4021f3:	48 83 c4 10          	add    $0x10,%rsp
  4021f7:	5b                   	pop    %rbx
  4021f8:	5d                   	pop    %rbp
  4021f9:	41 5c                	pop    %r12
  4021fb:	c3                   	retq   

00000000004021fc <rio_writen>:
  4021fc:	41 55                	push   %r13
  4021fe:	41 54                	push   %r12
  402200:	55                   	push   %rbp
  402201:	53                   	push   %rbx
  402202:	48 83 ec 08          	sub    $0x8,%rsp
  402206:	41 89 fc             	mov    %edi,%r12d
  402209:	49 89 d5             	mov    %rdx,%r13
  40220c:	48 89 f5             	mov    %rsi,%rbp
  40220f:	48 89 d3             	mov    %rdx,%rbx
  402212:	eb 06                	jmp    40221a <rio_writen+0x1e>
  402214:	48 29 c3             	sub    %rax,%rbx
  402217:	48 01 c5             	add    %rax,%rbp
  40221a:	48 85 db             	test   %rbx,%rbx
  40221d:	74 24                	je     402243 <rio_writen+0x47>
  40221f:	48 89 da             	mov    %rbx,%rdx
  402222:	48 89 ee             	mov    %rbp,%rsi
  402225:	44 89 e7             	mov    %r12d,%edi
  402228:	e8 13 ea ff ff       	callq  400c40 <write@plt>
  40222d:	48 85 c0             	test   %rax,%rax
  402230:	7f e2                	jg     402214 <rio_writen+0x18>
  402232:	e8 b9 e9 ff ff       	callq  400bf0 <__errno_location@plt>
  402237:	83 38 04             	cmpl   $0x4,(%rax)
  40223a:	75 15                	jne    402251 <rio_writen+0x55>
  40223c:	b8 00 00 00 00       	mov    $0x0,%eax
  402241:	eb d1                	jmp    402214 <rio_writen+0x18>
  402243:	4c 89 e8             	mov    %r13,%rax
  402246:	48 83 c4 08          	add    $0x8,%rsp
  40224a:	5b                   	pop    %rbx
  40224b:	5d                   	pop    %rbp
  40224c:	41 5c                	pop    %r12
  40224e:	41 5d                	pop    %r13
  402250:	c3                   	retq   
  402251:	48 c7 c0 ff ff ff ff 	mov    $0xffffffffffffffff,%rax
  402258:	eb ec                	jmp    402246 <rio_writen+0x4a>

000000000040225a <rio_read>:
  40225a:	41 55                	push   %r13
  40225c:	41 54                	push   %r12
  40225e:	55                   	push   %rbp
  40225f:	53                   	push   %rbx
  402260:	48 83 ec 08          	sub    $0x8,%rsp
  402264:	48 89 fb             	mov    %rdi,%rbx
  402267:	49 89 f5             	mov    %rsi,%r13
  40226a:	49 89 d4             	mov    %rdx,%r12
  40226d:	eb 0a                	jmp    402279 <rio_read+0x1f>
  40226f:	e8 7c e9 ff ff       	callq  400bf0 <__errno_location@plt>
  402274:	83 38 04             	cmpl   $0x4,(%rax)
  402277:	75 5c                	jne    4022d5 <rio_read+0x7b>
  402279:	8b 6b 04             	mov    0x4(%rbx),%ebp
  40227c:	85 ed                	test   %ebp,%ebp
  40227e:	7f 24                	jg     4022a4 <rio_read+0x4a>
  402280:	48 8d 6b 10          	lea    0x10(%rbx),%rbp
  402284:	ba 00 20 00 00       	mov    $0x2000,%edx
  402289:	48 89 ee             	mov    %rbp,%rsi
  40228c:	8b 3b                	mov    (%rbx),%edi
  40228e:	e8 0d ea ff ff       	callq  400ca0 <read@plt>
  402293:	89 43 04             	mov    %eax,0x4(%rbx)
  402296:	85 c0                	test   %eax,%eax
  402298:	78 d5                	js     40226f <rio_read+0x15>
  40229a:	85 c0                	test   %eax,%eax
  40229c:	74 40                	je     4022de <rio_read+0x84>
  40229e:	48 89 6b 08          	mov    %rbp,0x8(%rbx)
  4022a2:	eb d5                	jmp    402279 <rio_read+0x1f>
  4022a4:	89 e8                	mov    %ebp,%eax
  4022a6:	49 39 c4             	cmp    %rax,%r12
  4022a9:	77 03                	ja     4022ae <rio_read+0x54>
  4022ab:	44 89 e5             	mov    %r12d,%ebp
  4022ae:	4c 63 e5             	movslq %ebp,%r12
  4022b1:	48 8b 73 08          	mov    0x8(%rbx),%rsi
  4022b5:	4c 89 e2             	mov    %r12,%rdx
  4022b8:	4c 89 ef             	mov    %r13,%rdi
  4022bb:	e8 30 ea ff ff       	callq  400cf0 <memcpy@plt>
  4022c0:	4c 01 63 08          	add    %r12,0x8(%rbx)
  4022c4:	29 6b 04             	sub    %ebp,0x4(%rbx)
  4022c7:	4c 89 e0             	mov    %r12,%rax
  4022ca:	48 83 c4 08          	add    $0x8,%rsp
  4022ce:	5b                   	pop    %rbx
  4022cf:	5d                   	pop    %rbp
  4022d0:	41 5c                	pop    %r12
  4022d2:	41 5d                	pop    %r13
  4022d4:	c3                   	retq   
  4022d5:	48 c7 c0 ff ff ff ff 	mov    $0xffffffffffffffff,%rax
  4022dc:	eb ec                	jmp    4022ca <rio_read+0x70>
  4022de:	b8 00 00 00 00       	mov    $0x0,%eax
  4022e3:	eb e5                	jmp    4022ca <rio_read+0x70>

00000000004022e5 <rio_readlineb>:
  4022e5:	41 55                	push   %r13
  4022e7:	41 54                	push   %r12
  4022e9:	55                   	push   %rbp
  4022ea:	53                   	push   %rbx
  4022eb:	48 83 ec 18          	sub    $0x18,%rsp
  4022ef:	49 89 fd             	mov    %rdi,%r13
  4022f2:	49 89 d4             	mov    %rdx,%r12
  4022f5:	48 89 f5             	mov    %rsi,%rbp
  4022f8:	bb 01 00 00 00       	mov    $0x1,%ebx
  4022fd:	4c 39 e3             	cmp    %r12,%rbx
  402300:	73 47                	jae    402349 <rio_readlineb+0x64>
  402302:	48 8d 74 24 0f       	lea    0xf(%rsp),%rsi
  402307:	ba 01 00 00 00       	mov    $0x1,%edx
  40230c:	4c 89 ef             	mov    %r13,%rdi
  40230f:	e8 46 ff ff ff       	callq  40225a <rio_read>
  402314:	83 f8 01             	cmp    $0x1,%eax
  402317:	75 1c                	jne    402335 <rio_readlineb+0x50>
  402319:	48 8d 45 01          	lea    0x1(%rbp),%rax
  40231d:	0f b6 54 24 0f       	movzbl 0xf(%rsp),%edx
  402322:	88 55 00             	mov    %dl,0x0(%rbp)
  402325:	80 7c 24 0f 0a       	cmpb   $0xa,0xf(%rsp)
  40232a:	74 1a                	je     402346 <rio_readlineb+0x61>
  40232c:	48 83 c3 01          	add    $0x1,%rbx
  402330:	48 89 c5             	mov    %rax,%rbp
  402333:	eb c8                	jmp    4022fd <rio_readlineb+0x18>
  402335:	85 c0                	test   %eax,%eax
  402337:	75 22                	jne    40235b <rio_readlineb+0x76>
  402339:	48 83 fb 01          	cmp    $0x1,%rbx
  40233d:	75 0a                	jne    402349 <rio_readlineb+0x64>
  40233f:	b8 00 00 00 00       	mov    $0x0,%eax
  402344:	eb 0a                	jmp    402350 <rio_readlineb+0x6b>
  402346:	48 89 c5             	mov    %rax,%rbp
  402349:	c6 45 00 00          	movb   $0x0,0x0(%rbp)
  40234d:	48 89 d8             	mov    %rbx,%rax
  402350:	48 83 c4 18          	add    $0x18,%rsp
  402354:	5b                   	pop    %rbx
  402355:	5d                   	pop    %rbp
  402356:	41 5c                	pop    %r12
  402358:	41 5d                	pop    %r13
  40235a:	c3                   	retq   
  40235b:	48 c7 c0 ff ff ff ff 	mov    $0xffffffffffffffff,%rax
  402362:	eb ec                	jmp    402350 <rio_readlineb+0x6b>

0000000000402364 <submitr>:
  402364:	41 57                	push   %r15
  402366:	41 56                	push   %r14
  402368:	41 55                	push   %r13
  40236a:	41 54                	push   %r12
  40236c:	55                   	push   %rbp
  40236d:	53                   	push   %rbx
  40236e:	48 81 ec 58 a0 00 00 	sub    $0xa058,%rsp
  402375:	49 89 fd             	mov    %rdi,%r13
  402378:	89 74 24 14          	mov    %esi,0x14(%rsp)
  40237c:	49 89 d7             	mov    %rdx,%r15
  40237f:	48 89 4c 24 08       	mov    %rcx,0x8(%rsp)
  402384:	4c 89 44 24 18       	mov    %r8,0x18(%rsp)
  402389:	4d 89 ce             	mov    %r9,%r14
  40238c:	48 8b 9c 24 90 a0 00 	mov    0xa090(%rsp),%rbx
  402393:	00 
  402394:	c7 84 24 2c 20 00 00 	movl   $0x0,0x202c(%rsp)
  40239b:	00 00 00 00 
  40239f:	ba 00 00 00 00       	mov    $0x0,%edx
  4023a4:	be 01 00 00 00       	mov    $0x1,%esi
  4023a9:	bf 02 00 00 00       	mov    $0x2,%edi
  4023ae:	e8 1d ea ff ff       	callq  400dd0 <socket@plt>
  4023b3:	85 c0                	test   %eax,%eax
  4023b5:	0f 88 ca 01 00 00    	js     402585 <submitr+0x221>
  4023bb:	89 c5                	mov    %eax,%ebp
  4023bd:	4c 89 ef             	mov    %r13,%rdi
  4023c0:	e8 fb e8 ff ff       	callq  400cc0 <gethostbyname@plt>
  4023c5:	48 85 c0             	test   %rax,%rax
  4023c8:	0f 84 05 02 00 00    	je     4025d3 <submitr+0x26f>
  4023ce:	4c 8d a4 24 40 a0 00 	lea    0xa040(%rsp),%r12
  4023d5:	00 
  4023d6:	48 c7 84 24 40 a0 00 	movq   $0x0,0xa040(%rsp)
  4023dd:	00 00 00 00 00 
  4023e2:	48 c7 84 24 48 a0 00 	movq   $0x0,0xa048(%rsp)
  4023e9:	00 00 00 00 00 
  4023ee:	66 c7 84 24 40 a0 00 	movw   $0x2,0xa040(%rsp)
  4023f5:	00 02 00 
  4023f8:	48 8b 48 18          	mov    0x18(%rax),%rcx
  4023fc:	48 63 50 14          	movslq 0x14(%rax),%rdx
  402400:	48 8d b4 24 44 a0 00 	lea    0xa044(%rsp),%rsi
  402407:	00 
  402408:	48 8b 39             	mov    (%rcx),%rdi
  40240b:	e8 40 e9 ff ff       	callq  400d50 <bcopy@plt>
  402410:	0f b7 44 24 14       	movzwl 0x14(%rsp),%eax
  402415:	66 c1 c8 08          	ror    $0x8,%ax
  402419:	66 89 84 24 42 a0 00 	mov    %ax,0xa042(%rsp)
  402420:	00 
  402421:	ba 10 00 00 00       	mov    $0x10,%edx
  402426:	4c 89 e6             	mov    %r12,%rsi
  402429:	89 ef                	mov    %ebp,%edi
  40242b:	e8 90 e9 ff ff       	callq  400dc0 <connect@plt>
  402430:	85 c0                	test   %eax,%eax
  402432:	0f 88 02 02 00 00    	js     40263a <submitr+0x2d6>
  402438:	48 c7 c6 ff ff ff ff 	mov    $0xffffffffffffffff,%rsi
  40243f:	b8 00 00 00 00       	mov    $0x0,%eax
  402444:	48 89 f1             	mov    %rsi,%rcx
  402447:	4c 89 f7             	mov    %r14,%rdi
  40244a:	f2 ae                	repnz scas %es:(%rdi),%al
  40244c:	48 f7 d1             	not    %rcx
  40244f:	48 89 ca             	mov    %rcx,%rdx
  402452:	48 89 f1             	mov    %rsi,%rcx
  402455:	4c 89 ff             	mov    %r15,%rdi
  402458:	f2 ae                	repnz scas %es:(%rdi),%al
  40245a:	48 f7 d1             	not    %rcx
  40245d:	49 89 c8             	mov    %rcx,%r8
  402460:	48 89 f1             	mov    %rsi,%rcx
  402463:	48 8b 7c 24 08       	mov    0x8(%rsp),%rdi
  402468:	f2 ae                	repnz scas %es:(%rdi),%al
  40246a:	48 f7 d1             	not    %rcx
  40246d:	4d 8d 44 08 fe       	lea    -0x2(%r8,%rcx,1),%r8
  402472:	48 89 f1             	mov    %rsi,%rcx
  402475:	48 8b 7c 24 18       	mov    0x18(%rsp),%rdi
  40247a:	f2 ae                	repnz scas %es:(%rdi),%al
  40247c:	48 89 c8             	mov    %rcx,%rax
  40247f:	48 f7 d0             	not    %rax
  402482:	49 8d 4c 00 ff       	lea    -0x1(%r8,%rax,1),%rcx
  402487:	48 8d 44 52 fd       	lea    -0x3(%rdx,%rdx,2),%rax
  40248c:	48 8d 84 01 80 00 00 	lea    0x80(%rcx,%rax,1),%rax
  402493:	00 
  402494:	48 3d 00 20 00 00    	cmp    $0x2000,%rax
  40249a:	0f 87 f3 01 00 00    	ja     402693 <submitr+0x32f>
  4024a0:	48 8d b4 24 30 40 00 	lea    0x4030(%rsp),%rsi
  4024a7:	00 
  4024a8:	b9 00 04 00 00       	mov    $0x400,%ecx
  4024ad:	b8 00 00 00 00       	mov    $0x0,%eax
  4024b2:	48 89 f7             	mov    %rsi,%rdi
  4024b5:	f3 48 ab             	rep stos %rax,%es:(%rdi)
  4024b8:	4c 89 f7             	mov    %r14,%rdi
  4024bb:	e8 60 fc ff ff       	callq  402120 <urlencode>
  4024c0:	85 c0                	test   %eax,%eax
  4024c2:	0f 88 3d 02 00 00    	js     402705 <submitr+0x3a1>
  4024c8:	4c 8d a4 24 30 60 00 	lea    0x6030(%rsp),%r12
  4024cf:	00 
  4024d0:	4d 89 e9             	mov    %r13,%r9
  4024d3:	4c 8d 84 24 30 40 00 	lea    0x4030(%rsp),%r8
  4024da:	00 
  4024db:	4c 89 f9             	mov    %r15,%rcx
  4024de:	48 8b 54 24 08       	mov    0x8(%rsp),%rdx
  4024e3:	48 8d 35 2e 10 00 00 	lea    0x102e(%rip),%rsi        # 403518 <trans_char+0x38>
  4024ea:	4c 89 e7             	mov    %r12,%rdi
  4024ed:	b8 00 00 00 00       	mov    $0x0,%eax
  4024f2:	e8 a9 e8 ff ff       	callq  400da0 <sprintf@plt>
  4024f7:	b8 00 00 00 00       	mov    $0x0,%eax
  4024fc:	48 c7 c1 ff ff ff ff 	mov    $0xffffffffffffffff,%rcx
  402503:	4c 89 e7             	mov    %r12,%rdi
  402506:	f2 ae                	repnz scas %es:(%rdi),%al
  402508:	48 f7 d1             	not    %rcx
  40250b:	48 8d 51 ff          	lea    -0x1(%rcx),%rdx
  40250f:	4c 89 e6             	mov    %r12,%rsi
  402512:	89 ef                	mov    %ebp,%edi
  402514:	e8 e3 fc ff ff       	callq  4021fc <rio_writen>
  402519:	48 85 c0             	test   %rax,%rax
  40251c:	0f 88 6d 02 00 00    	js     40278f <submitr+0x42b>
  402522:	4c 8d a4 24 30 80 00 	lea    0x8030(%rsp),%r12
  402529:	00 
  40252a:	89 ee                	mov    %ebp,%esi
  40252c:	4c 89 e7             	mov    %r12,%rdi
  40252f:	e8 af fb ff ff       	callq  4020e3 <rio_readinitb>
  402534:	48 8d b4 24 30 60 00 	lea    0x6030(%rsp),%rsi
  40253b:	00 
  40253c:	ba 00 20 00 00       	mov    $0x2000,%edx
  402541:	4c 89 e7             	mov    %r12,%rdi
  402544:	e8 9c fd ff ff       	callq  4022e5 <rio_readlineb>
  402549:	48 85 c0             	test   %rax,%rax
  40254c:	0f 8e ab 02 00 00    	jle    4027fd <submitr+0x499>
  402552:	48 8d 8c 24 2c 20 00 	lea    0x202c(%rsp),%rcx
  402559:	00 
  40255a:	48 8d 94 24 30 20 00 	lea    0x2030(%rsp),%rdx
  402561:	00 
  402562:	48 8d bc 24 30 60 00 	lea    0x6030(%rsp),%rdi
  402569:	00 
  40256a:	4c 8d 44 24 20       	lea    0x20(%rsp),%r8
  40256f:	48 8d 35 19 10 00 00 	lea    0x1019(%rip),%rsi        # 40358f <trans_char+0xaf>
  402576:	b8 00 00 00 00       	mov    $0x0,%eax
  40257b:	e8 b0 e7 ff ff       	callq  400d30 <__isoc99_sscanf@plt>
  402580:	e9 9f 03 00 00       	jmpq   402924 <submitr+0x5c0>
  402585:	48 b8 45 72 72 6f 72 	movabs $0x43203a726f727245,%rax
  40258c:	3a 20 43 
  40258f:	48 89 03             	mov    %rax,(%rbx)
  402592:	48 b8 6c 69 65 6e 74 	movabs $0x6e7520746e65696c,%rax
  402599:	20 75 6e 
  40259c:	48 89 43 08          	mov    %rax,0x8(%rbx)
  4025a0:	48 b8 61 62 6c 65 20 	movabs $0x206f7420656c6261,%rax
  4025a7:	74 6f 20 
  4025aa:	48 89 43 10          	mov    %rax,0x10(%rbx)
  4025ae:	48 b8 63 72 65 61 74 	movabs $0x7320657461657263,%rax
  4025b5:	65 20 73 
  4025b8:	48 89 43 18          	mov    %rax,0x18(%rbx)
  4025bc:	c7 43 20 6f 63 6b 65 	movl   $0x656b636f,0x20(%rbx)
  4025c3:	66 c7 43 24 74 00    	movw   $0x74,0x24(%rbx)
  4025c9:	b8 ff ff ff ff       	mov    $0xffffffff,%eax
  4025ce:	e9 18 03 00 00       	jmpq   4028eb <submitr+0x587>
  4025d3:	48 b8 45 72 72 6f 72 	movabs $0x44203a726f727245,%rax
  4025da:	3a 20 44 
  4025dd:	48 89 03             	mov    %rax,(%rbx)
  4025e0:	48 b8 4e 53 20 69 73 	movabs $0x6e7520736920534e,%rax
  4025e7:	20 75 6e 
  4025ea:	48 89 43 08          	mov    %rax,0x8(%rbx)
  4025ee:	48 b8 61 62 6c 65 20 	movabs $0x206f7420656c6261,%rax
  4025f5:	74 6f 20 
  4025f8:	48 89 43 10          	mov    %rax,0x10(%rbx)
  4025fc:	48 b8 72 65 73 6f 6c 	movabs $0x2065766c6f736572,%rax
  402603:	76 65 20 
  402606:	48 89 43 18          	mov    %rax,0x18(%rbx)
  40260a:	48 b8 73 65 72 76 65 	movabs $0x6120726576726573,%rax
  402611:	72 20 61 
  402614:	48 89 43 20          	mov    %rax,0x20(%rbx)
  402618:	c7 43 28 64 64 72 65 	movl   $0x65726464,0x28(%rbx)
  40261f:	66 c7 43 2c 73 73    	movw   $0x7373,0x2c(%rbx)
  402625:	c6 43 2e 00          	movb   $0x0,0x2e(%rbx)
  402629:	89 ef                	mov    %ebp,%edi
  40262b:	e8 60 e6 ff ff       	callq  400c90 <close@plt>
  402630:	b8 ff ff ff ff       	mov    $0xffffffff,%eax
  402635:	e9 b1 02 00 00       	jmpq   4028eb <submitr+0x587>
  40263a:	48 b8 45 72 72 6f 72 	movabs $0x55203a726f727245,%rax
  402641:	3a 20 55 
  402644:	48 89 03             	mov    %rax,(%rbx)
  402647:	48 b8 6e 61 62 6c 65 	movabs $0x6f7420656c62616e,%rax
  40264e:	20 74 6f 
  402651:	48 89 43 08          	mov    %rax,0x8(%rbx)
  402655:	48 b8 20 63 6f 6e 6e 	movabs $0x7463656e6e6f6320,%rax
  40265c:	65 63 74 
  40265f:	48 89 43 10          	mov    %rax,0x10(%rbx)
  402663:	48 b8 20 74 6f 20 74 	movabs $0x20656874206f7420,%rax
  40266a:	68 65 20 
  40266d:	48 89 43 18          	mov    %rax,0x18(%rbx)
  402671:	c7 43 20 73 65 72 76 	movl   $0x76726573,0x20(%rbx)
  402678:	66 c7 43 24 65 72    	movw   $0x7265,0x24(%rbx)
  40267e:	c6 43 26 00          	movb   $0x0,0x26(%rbx)
  402682:	89 ef                	mov    %ebp,%edi
  402684:	e8 07 e6 ff ff       	callq  400c90 <close@plt>
  402689:	b8 ff ff ff ff       	mov    $0xffffffff,%eax
  40268e:	e9 58 02 00 00       	jmpq   4028eb <submitr+0x587>
  402693:	48 b8 45 72 72 6f 72 	movabs $0x52203a726f727245,%rax
  40269a:	3a 20 52 
  40269d:	48 89 03             	mov    %rax,(%rbx)
  4026a0:	48 b8 65 73 75 6c 74 	movabs $0x747320746c757365,%rax
  4026a7:	20 73 74 
  4026aa:	48 89 43 08          	mov    %rax,0x8(%rbx)
  4026ae:	48 b8 72 69 6e 67 20 	movabs $0x6f6f7420676e6972,%rax
  4026b5:	74 6f 6f 
  4026b8:	48 89 43 10          	mov    %rax,0x10(%rbx)
  4026bc:	48 b8 20 6c 61 72 67 	movabs $0x202e656772616c20,%rax
  4026c3:	65 2e 20 
  4026c6:	48 89 43 18          	mov    %rax,0x18(%rbx)
  4026ca:	48 b8 49 6e 63 72 65 	movabs $0x6573616572636e49,%rax
  4026d1:	61 73 65 
  4026d4:	48 89 43 20          	mov    %rax,0x20(%rbx)
  4026d8:	48 b8 20 53 55 42 4d 	movabs $0x5254494d42555320,%rax
  4026df:	49 54 52 
  4026e2:	48 89 43 28          	mov    %rax,0x28(%rbx)
  4026e6:	48 b8 5f 4d 41 58 42 	movabs $0x46554258414d5f,%rax
  4026ed:	55 46 00 
  4026f0:	48 89 43 30          	mov    %rax,0x30(%rbx)
  4026f4:	89 ef                	mov    %ebp,%edi
  4026f6:	e8 95 e5 ff ff       	callq  400c90 <close@plt>
  4026fb:	b8 ff ff ff ff       	mov    $0xffffffff,%eax
  402700:	e9 e6 01 00 00       	jmpq   4028eb <submitr+0x587>
  402705:	48 b8 45 72 72 6f 72 	movabs $0x52203a726f727245,%rax
  40270c:	3a 20 52 
  40270f:	48 89 03             	mov    %rax,(%rbx)
  402712:	48 b8 65 73 75 6c 74 	movabs $0x747320746c757365,%rax
  402719:	20 73 74 
  40271c:	48 89 43 08          	mov    %rax,0x8(%rbx)
  402720:	48 b8 72 69 6e 67 20 	movabs $0x6e6f6320676e6972,%rax
  402727:	63 6f 6e 
  40272a:	48 89 43 10          	mov    %rax,0x10(%rbx)
  40272e:	48 b8 74 61 69 6e 73 	movabs $0x6e6120736e696174,%rax
  402735:	20 61 6e 
  402738:	48 89 43 18          	mov    %rax,0x18(%rbx)
  40273c:	48 b8 20 69 6c 6c 65 	movabs $0x6c6167656c6c6920,%rax
  402743:	67 61 6c 
  402746:	48 89 43 20          	mov    %rax,0x20(%rbx)
  40274a:	48 b8 20 6f 72 20 75 	movabs $0x72706e7520726f20,%rax
  402751:	6e 70 72 
  402754:	48 89 43 28          	mov    %rax,0x28(%rbx)
  402758:	48 b8 69 6e 74 61 62 	movabs $0x20656c6261746e69,%rax
  40275f:	6c 65 20 
  402762:	48 89 43 30          	mov    %rax,0x30(%rbx)
  402766:	48 b8 63 68 61 72 61 	movabs $0x6574636172616863,%rax
  40276d:	63 74 65 
  402770:	48 89 43 38          	mov    %rax,0x38(%rbx)
  402774:	66 c7 43 40 72 2e    	movw   $0x2e72,0x40(%rbx)
  40277a:	c6 43 42 00          	movb   $0x0,0x42(%rbx)
  40277e:	89 ef                	mov    %ebp,%edi
  402780:	e8 0b e5 ff ff       	callq  400c90 <close@plt>
  402785:	b8 ff ff ff ff       	mov    $0xffffffff,%eax
  40278a:	e9 5c 01 00 00       	jmpq   4028eb <submitr+0x587>
  40278f:	48 b8 45 72 72 6f 72 	movabs $0x43203a726f727245,%rax
  402796:	3a 20 43 
  402799:	48 89 03             	mov    %rax,(%rbx)
  40279c:	48 b8 6c 69 65 6e 74 	movabs $0x6e7520746e65696c,%rax
  4027a3:	20 75 6e 
  4027a6:	48 89 43 08          	mov    %rax,0x8(%rbx)
  4027aa:	48 b8 61 62 6c 65 20 	movabs $0x206f7420656c6261,%rax
  4027b1:	74 6f 20 
  4027b4:	48 89 43 10          	mov    %rax,0x10(%rbx)
  4027b8:	48 b8 77 72 69 74 65 	movabs $0x6f74206574697277,%rax
  4027bf:	20 74 6f 
  4027c2:	48 89 43 18          	mov    %rax,0x18(%rbx)
  4027c6:	48 b8 20 74 68 65 20 	movabs $0x7365722065687420,%rax
  4027cd:	72 65 73 
  4027d0:	48 89 43 20          	mov    %rax,0x20(%rbx)
  4027d4:	48 b8 75 6c 74 20 73 	movabs $0x7672657320746c75,%rax
  4027db:	65 72 76 
  4027de:	48 89 43 28          	mov    %rax,0x28(%rbx)
  4027e2:	66 c7 43 30 65 72    	movw   $0x7265,0x30(%rbx)
  4027e8:	c6 43 32 00          	movb   $0x0,0x32(%rbx)
  4027ec:	89 ef                	mov    %ebp,%edi
  4027ee:	e8 9d e4 ff ff       	callq  400c90 <close@plt>
  4027f3:	b8 ff ff ff ff       	mov    $0xffffffff,%eax
  4027f8:	e9 ee 00 00 00       	jmpq   4028eb <submitr+0x587>
  4027fd:	48 b8 45 72 72 6f 72 	movabs $0x43203a726f727245,%rax
  402804:	3a 20 43 
  402807:	48 89 03             	mov    %rax,(%rbx)
  40280a:	48 b8 6c 69 65 6e 74 	movabs $0x6e7520746e65696c,%rax
  402811:	20 75 6e 
  402814:	48 89 43 08          	mov    %rax,0x8(%rbx)
  402818:	48 b8 61 62 6c 65 20 	movabs $0x206f7420656c6261,%rax
  40281f:	74 6f 20 
  402822:	48 89 43 10          	mov    %rax,0x10(%rbx)
  402826:	48 b8 72 65 61 64 20 	movabs $0x7269662064616572,%rax
  40282d:	66 69 72 
  402830:	48 89 43 18          	mov    %rax,0x18(%rbx)
  402834:	48 b8 73 74 20 68 65 	movabs $0x6564616568207473,%rax
  40283b:	61 64 65 
  40283e:	48 89 43 20          	mov    %rax,0x20(%rbx)
  402842:	48 b8 72 20 66 72 6f 	movabs $0x72206d6f72662072,%rax
  402849:	6d 20 72 
  40284c:	48 89 43 28          	mov    %rax,0x28(%rbx)
  402850:	48 b8 65 73 75 6c 74 	movabs $0x657320746c757365,%rax
  402857:	20 73 65 
  40285a:	48 89 43 30          	mov    %rax,0x30(%rbx)
  40285e:	c7 43 38 72 76 65 72 	movl   $0x72657672,0x38(%rbx)
  402865:	c6 43 3c 00          	movb   $0x0,0x3c(%rbx)
  402869:	89 ef                	mov    %ebp,%edi
  40286b:	e8 20 e4 ff ff       	callq  400c90 <close@plt>
  402870:	b8 ff ff ff ff       	mov    $0xffffffff,%eax
  402875:	eb 74                	jmp    4028eb <submitr+0x587>
  402877:	48 b8 45 72 72 6f 72 	movabs $0x43203a726f727245,%rax
  40287e:	3a 20 43 
  402881:	48 89 03             	mov    %rax,(%rbx)
  402884:	48 b8 6c 69 65 6e 74 	movabs $0x6e7520746e65696c,%rax
  40288b:	20 75 6e 
  40288e:	48 89 43 08          	mov    %rax,0x8(%rbx)
  402892:	48 b8 61 62 6c 65 20 	movabs $0x206f7420656c6261,%rax
  402899:	74 6f 20 
  40289c:	48 89 43 10          	mov    %rax,0x10(%rbx)
  4028a0:	48 b8 72 65 61 64 20 	movabs $0x6165682064616572,%rax
  4028a7:	68 65 61 
  4028aa:	48 89 43 18          	mov    %rax,0x18(%rbx)
  4028ae:	48 b8 64 65 72 73 20 	movabs $0x6f72662073726564,%rax
  4028b5:	66 72 6f 
  4028b8:	48 89 43 20          	mov    %rax,0x20(%rbx)
  4028bc:	48 b8 6d 20 74 68 65 	movabs $0x657220656874206d,%rax
  4028c3:	20 72 65 
  4028c6:	48 89 43 28          	mov    %rax,0x28(%rbx)
  4028ca:	48 b8 73 75 6c 74 20 	movabs $0x72657320746c7573,%rax
  4028d1:	73 65 72 
  4028d4:	48 89 43 30          	mov    %rax,0x30(%rbx)
  4028d8:	c7 43 38 76 65 72 00 	movl   $0x726576,0x38(%rbx)
  4028df:	89 ef                	mov    %ebp,%edi
  4028e1:	e8 aa e3 ff ff       	callq  400c90 <close@plt>
  4028e6:	b8 ff ff ff ff       	mov    $0xffffffff,%eax
  4028eb:	48 81 c4 58 a0 00 00 	add    $0xa058,%rsp
  4028f2:	5b                   	pop    %rbx
  4028f3:	5d                   	pop    %rbp
  4028f4:	41 5c                	pop    %r12
  4028f6:	41 5d                	pop    %r13
  4028f8:	41 5e                	pop    %r14
  4028fa:	41 5f                	pop    %r15
  4028fc:	c3                   	retq   
  4028fd:	85 c0                	test   %eax,%eax
  4028ff:	74 51                	je     402952 <submitr+0x5ee>
  402901:	48 8d b4 24 30 60 00 	lea    0x6030(%rsp),%rsi
  402908:	00 
  402909:	48 8d bc 24 30 80 00 	lea    0x8030(%rsp),%rdi
  402910:	00 
  402911:	ba 00 20 00 00       	mov    $0x2000,%edx
  402916:	e8 ca f9 ff ff       	callq  4022e5 <rio_readlineb>
  40291b:	48 85 c0             	test   %rax,%rax
  40291e:	0f 8e 53 ff ff ff    	jle    402877 <submitr+0x513>
  402924:	0f b6 94 24 30 60 00 	movzbl 0x6030(%rsp),%edx
  40292b:	00 
  40292c:	b8 0d 00 00 00       	mov    $0xd,%eax
  402931:	29 d0                	sub    %edx,%eax
  402933:	75 c8                	jne    4028fd <submitr+0x599>
  402935:	0f b6 94 24 31 60 00 	movzbl 0x6031(%rsp),%edx
  40293c:	00 
  40293d:	b8 0a 00 00 00       	mov    $0xa,%eax
  402942:	29 d0                	sub    %edx,%eax
  402944:	75 b7                	jne    4028fd <submitr+0x599>
  402946:	0f b6 84 24 32 60 00 	movzbl 0x6032(%rsp),%eax
  40294d:	00 
  40294e:	f7 d8                	neg    %eax
  402950:	eb ab                	jmp    4028fd <submitr+0x599>
  402952:	48 8d b4 24 30 60 00 	lea    0x6030(%rsp),%rsi
  402959:	00 
  40295a:	48 8d bc 24 30 80 00 	lea    0x8030(%rsp),%rdi
  402961:	00 
  402962:	ba 00 20 00 00       	mov    $0x2000,%edx
  402967:	e8 79 f9 ff ff       	callq  4022e5 <rio_readlineb>
  40296c:	48 85 c0             	test   %rax,%rax
  40296f:	7e 67                	jle    4029d8 <submitr+0x674>
  402971:	8b 94 24 2c 20 00 00 	mov    0x202c(%rsp),%edx
  402978:	81 fa c8 00 00 00    	cmp    $0xc8,%edx
  40297e:	0f 85 d7 00 00 00    	jne    402a5b <submitr+0x6f7>
  402984:	48 8d b4 24 30 60 00 	lea    0x6030(%rsp),%rsi
  40298b:	00 
  40298c:	48 89 df             	mov    %rbx,%rdi
  40298f:	e8 8c e2 ff ff       	callq  400c20 <strcpy@plt>
  402994:	89 ef                	mov    %ebp,%edi
  402996:	e8 f5 e2 ff ff       	callq  400c90 <close@plt>
  40299b:	0f b6 03             	movzbl (%rbx),%eax
  40299e:	ba 4f 00 00 00       	mov    $0x4f,%edx
  4029a3:	29 c2                	sub    %eax,%edx
  4029a5:	0f 85 da 00 00 00    	jne    402a85 <submitr+0x721>
  4029ab:	0f b6 4b 01          	movzbl 0x1(%rbx),%ecx
  4029af:	b8 4b 00 00 00       	mov    $0x4b,%eax
  4029b4:	29 c8                	sub    %ecx,%eax
  4029b6:	0f 85 cb 00 00 00    	jne    402a87 <submitr+0x723>
  4029bc:	0f b6 4b 02          	movzbl 0x2(%rbx),%ecx
  4029c0:	b8 0a 00 00 00       	mov    $0xa,%eax
  4029c5:	29 c8                	sub    %ecx,%eax
  4029c7:	0f 85 ba 00 00 00    	jne    402a87 <submitr+0x723>
  4029cd:	0f b6 43 03          	movzbl 0x3(%rbx),%eax
  4029d1:	f7 d8                	neg    %eax
  4029d3:	e9 af 00 00 00       	jmpq   402a87 <submitr+0x723>
  4029d8:	48 b8 45 72 72 6f 72 	movabs $0x43203a726f727245,%rax
  4029df:	3a 20 43 
  4029e2:	48 89 03             	mov    %rax,(%rbx)
  4029e5:	48 b8 6c 69 65 6e 74 	movabs $0x6e7520746e65696c,%rax
  4029ec:	20 75 6e 
  4029ef:	48 89 43 08          	mov    %rax,0x8(%rbx)
  4029f3:	48 b8 61 62 6c 65 20 	movabs $0x206f7420656c6261,%rax
  4029fa:	74 6f 20 
  4029fd:	48 89 43 10          	mov    %rax,0x10(%rbx)
  402a01:	48 b8 72 65 61 64 20 	movabs $0x6174732064616572,%rax
  402a08:	73 74 61 
  402a0b:	48 89 43 18          	mov    %rax,0x18(%rbx)
  402a0f:	48 b8 74 75 73 20 6d 	movabs $0x7373656d20737574,%rax
  402a16:	65 73 73 
  402a19:	48 89 43 20          	mov    %rax,0x20(%rbx)
  402a1d:	48 b8 61 67 65 20 66 	movabs $0x6d6f726620656761,%rax
  402a24:	72 6f 6d 
  402a27:	48 89 43 28          	mov    %rax,0x28(%rbx)
  402a2b:	48 b8 20 72 65 73 75 	movabs $0x20746c7573657220,%rax
  402a32:	6c 74 20 
  402a35:	48 89 43 30          	mov    %rax,0x30(%rbx)
  402a39:	c7 43 38 73 65 72 76 	movl   $0x76726573,0x38(%rbx)
  402a40:	66 c7 43 3c 65 72    	movw   $0x7265,0x3c(%rbx)
  402a46:	c6 43 3e 00          	movb   $0x0,0x3e(%rbx)
  402a4a:	89 ef                	mov    %ebp,%edi
  402a4c:	e8 3f e2 ff ff       	callq  400c90 <close@plt>
  402a51:	b8 ff ff ff ff       	mov    $0xffffffff,%eax
  402a56:	e9 90 fe ff ff       	jmpq   4028eb <submitr+0x587>
  402a5b:	48 8d 4c 24 20       	lea    0x20(%rsp),%rcx
  402a60:	48 8d 35 f1 0a 00 00 	lea    0xaf1(%rip),%rsi        # 403558 <trans_char+0x78>
  402a67:	48 89 df             	mov    %rbx,%rdi
  402a6a:	b8 00 00 00 00       	mov    $0x0,%eax
  402a6f:	e8 2c e3 ff ff       	callq  400da0 <sprintf@plt>
  402a74:	89 ef                	mov    %ebp,%edi
  402a76:	e8 15 e2 ff ff       	callq  400c90 <close@plt>
  402a7b:	b8 ff ff ff ff       	mov    $0xffffffff,%eax
  402a80:	e9 66 fe ff ff       	jmpq   4028eb <submitr+0x587>
  402a85:	89 d0                	mov    %edx,%eax
  402a87:	f7 d8                	neg    %eax
  402a89:	0f 84 5c fe ff ff    	je     4028eb <submitr+0x587>
  402a8f:	b9 05 00 00 00       	mov    $0x5,%ecx
  402a94:	48 8d 3d 05 0b 00 00 	lea    0xb05(%rip),%rdi        # 4035a0 <trans_char+0xc0>
  402a9b:	48 89 de             	mov    %rbx,%rsi
  402a9e:	f3 a6                	repz cmpsb %es:(%rdi),%ds:(%rsi)
  402aa0:	0f 97 c0             	seta   %al
  402aa3:	0f 92 c1             	setb   %cl
  402aa6:	29 c8                	sub    %ecx,%eax
  402aa8:	0f be c0             	movsbl %al,%eax
  402aab:	85 c0                	test   %eax,%eax
  402aad:	0f 84 38 fe ff ff    	je     4028eb <submitr+0x587>
  402ab3:	85 d2                	test   %edx,%edx
  402ab5:	75 13                	jne    402aca <submitr+0x766>
  402ab7:	0f b6 43 01          	movzbl 0x1(%rbx),%eax
  402abb:	ba 4b 00 00 00       	mov    $0x4b,%edx
  402ac0:	29 c2                	sub    %eax,%edx
  402ac2:	75 06                	jne    402aca <submitr+0x766>
  402ac4:	0f b6 53 02          	movzbl 0x2(%rbx),%edx
  402ac8:	f7 da                	neg    %edx
  402aca:	89 d0                	mov    %edx,%eax
  402acc:	f7 d8                	neg    %eax
  402ace:	0f 84 17 fe ff ff    	je     4028eb <submitr+0x587>
  402ad4:	b8 ff ff ff ff       	mov    $0xffffffff,%eax
  402ad9:	e9 0d fe ff ff       	jmpq   4028eb <submitr+0x587>

0000000000402ade <init_timeout>:
  402ade:	85 ff                	test   %edi,%edi
  402ae0:	74 20                	je     402b02 <init_timeout+0x24>
  402ae2:	53                   	push   %rbx
  402ae3:	89 fb                	mov    %edi,%ebx
  402ae5:	85 ff                	test   %edi,%edi
  402ae7:	78 1b                	js     402b04 <init_timeout+0x26>
  402ae9:	48 8d 35 05 f6 ff ff 	lea    -0x9fb(%rip),%rsi        # 4020f5 <sigalrm_handler>
  402af0:	bf 0e 00 00 00       	mov    $0xe,%edi
  402af5:	e8 b6 e1 ff ff       	callq  400cb0 <signal@plt>
  402afa:	89 df                	mov    %ebx,%edi
  402afc:	e8 7f e1 ff ff       	callq  400c80 <alarm@plt>
  402b01:	5b                   	pop    %rbx
  402b02:	f3 c3                	repz retq 
  402b04:	bb 00 00 00 00       	mov    $0x0,%ebx
  402b09:	eb de                	jmp    402ae9 <init_timeout+0xb>

0000000000402b0b <init_driver>:
  402b0b:	41 54                	push   %r12
  402b0d:	55                   	push   %rbp
  402b0e:	53                   	push   %rbx
  402b0f:	48 83 ec 10          	sub    $0x10,%rsp
  402b13:	48 89 fd             	mov    %rdi,%rbp
  402b16:	be 01 00 00 00       	mov    $0x1,%esi
  402b1b:	bf 0d 00 00 00       	mov    $0xd,%edi
  402b20:	e8 8b e1 ff ff       	callq  400cb0 <signal@plt>
  402b25:	be 01 00 00 00       	mov    $0x1,%esi
  402b2a:	bf 1d 00 00 00       	mov    $0x1d,%edi
  402b2f:	e8 7c e1 ff ff       	callq  400cb0 <signal@plt>
  402b34:	be 01 00 00 00       	mov    $0x1,%esi
  402b39:	bf 1d 00 00 00       	mov    $0x1d,%edi
  402b3e:	e8 6d e1 ff ff       	callq  400cb0 <signal@plt>
  402b43:	ba 00 00 00 00       	mov    $0x0,%edx
  402b48:	be 01 00 00 00       	mov    $0x1,%esi
  402b4d:	bf 02 00 00 00       	mov    $0x2,%edi
  402b52:	e8 79 e2 ff ff       	callq  400dd0 <socket@plt>
  402b57:	85 c0                	test   %eax,%eax
  402b59:	0f 88 80 00 00 00    	js     402bdf <init_driver+0xd4>
  402b5f:	89 c3                	mov    %eax,%ebx
  402b61:	48 8d 3d 3d 0a 00 00 	lea    0xa3d(%rip),%rdi        # 4035a5 <trans_char+0xc5>
  402b68:	e8 53 e1 ff ff       	callq  400cc0 <gethostbyname@plt>
  402b6d:	48 85 c0             	test   %rax,%rax
  402b70:	0f 84 b5 00 00 00    	je     402c2b <init_driver+0x120>
  402b76:	48 c7 04 24 00 00 00 	movq   $0x0,(%rsp)
  402b7d:	00 
  402b7e:	48 c7 44 24 08 00 00 	movq   $0x0,0x8(%rsp)
  402b85:	00 00 
  402b87:	66 c7 04 24 02 00    	movw   $0x2,(%rsp)
  402b8d:	48 8b 48 18          	mov    0x18(%rax),%rcx
  402b91:	48 63 50 14          	movslq 0x14(%rax),%rdx
  402b95:	48 8d 74 24 04       	lea    0x4(%rsp),%rsi
  402b9a:	48 8b 39             	mov    (%rcx),%rdi
  402b9d:	e8 ae e1 ff ff       	callq  400d50 <bcopy@plt>
  402ba2:	66 c7 44 24 02 3c a4 	movw   $0xa43c,0x2(%rsp)
  402ba9:	ba 10 00 00 00       	mov    $0x10,%edx
  402bae:	48 89 e6             	mov    %rsp,%rsi
  402bb1:	89 df                	mov    %ebx,%edi
  402bb3:	e8 08 e2 ff ff       	callq  400dc0 <connect@plt>
  402bb8:	85 c0                	test   %eax,%eax
  402bba:	0f 88 d3 00 00 00    	js     402c93 <init_driver+0x188>
  402bc0:	89 df                	mov    %ebx,%edi
  402bc2:	e8 c9 e0 ff ff       	callq  400c90 <close@plt>
  402bc7:	66 c7 45 00 4f 4b    	movw   $0x4b4f,0x0(%rbp)
  402bcd:	c6 45 02 00          	movb   $0x0,0x2(%rbp)
  402bd1:	b8 00 00 00 00       	mov    $0x0,%eax
  402bd6:	48 83 c4 10          	add    $0x10,%rsp
  402bda:	5b                   	pop    %rbx
  402bdb:	5d                   	pop    %rbp
  402bdc:	41 5c                	pop    %r12
  402bde:	c3                   	retq   
  402bdf:	48 b8 45 72 72 6f 72 	movabs $0x43203a726f727245,%rax
  402be6:	3a 20 43 
  402be9:	48 89 45 00          	mov    %rax,0x0(%rbp)
  402bed:	48 b8 6c 69 65 6e 74 	movabs $0x6e7520746e65696c,%rax
  402bf4:	20 75 6e 
  402bf7:	48 89 45 08          	mov    %rax,0x8(%rbp)
  402bfb:	48 b8 61 62 6c 65 20 	movabs $0x206f7420656c6261,%rax
  402c02:	74 6f 20 
  402c05:	48 89 45 10          	mov    %rax,0x10(%rbp)
  402c09:	48 b8 63 72 65 61 74 	movabs $0x7320657461657263,%rax
  402c10:	65 20 73 
  402c13:	48 89 45 18          	mov    %rax,0x18(%rbp)
  402c17:	c7 45 20 6f 63 6b 65 	movl   $0x656b636f,0x20(%rbp)
  402c1e:	66 c7 45 24 74 00    	movw   $0x74,0x24(%rbp)
  402c24:	b8 ff ff ff ff       	mov    $0xffffffff,%eax
  402c29:	eb ab                	jmp    402bd6 <init_driver+0xcb>
  402c2b:	48 b8 45 72 72 6f 72 	movabs $0x44203a726f727245,%rax
  402c32:	3a 20 44 
  402c35:	48 89 45 00          	mov    %rax,0x0(%rbp)
  402c39:	48 b8 4e 53 20 69 73 	movabs $0x6e7520736920534e,%rax
  402c40:	20 75 6e 
  402c43:	48 89 45 08          	mov    %rax,0x8(%rbp)
  402c47:	48 b8 61 62 6c 65 20 	movabs $0x206f7420656c6261,%rax
  402c4e:	74 6f 20 
  402c51:	48 89 45 10          	mov    %rax,0x10(%rbp)
  402c55:	48 b8 72 65 73 6f 6c 	movabs $0x2065766c6f736572,%rax
  402c5c:	76 65 20 
  402c5f:	48 89 45 18          	mov    %rax,0x18(%rbp)
  402c63:	48 b8 73 65 72 76 65 	movabs $0x6120726576726573,%rax
  402c6a:	72 20 61 
  402c6d:	48 89 45 20          	mov    %rax,0x20(%rbp)
  402c71:	c7 45 28 64 64 72 65 	movl   $0x65726464,0x28(%rbp)
  402c78:	66 c7 45 2c 73 73    	movw   $0x7373,0x2c(%rbp)
  402c7e:	c6 45 2e 00          	movb   $0x0,0x2e(%rbp)
  402c82:	89 df                	mov    %ebx,%edi
  402c84:	e8 07 e0 ff ff       	callq  400c90 <close@plt>
  402c89:	b8 ff ff ff ff       	mov    $0xffffffff,%eax
  402c8e:	e9 43 ff ff ff       	jmpq   402bd6 <init_driver+0xcb>
  402c93:	48 b8 45 72 72 6f 72 	movabs $0x55203a726f727245,%rax
  402c9a:	3a 20 55 
  402c9d:	48 89 45 00          	mov    %rax,0x0(%rbp)
  402ca1:	48 b8 6e 61 62 6c 65 	movabs $0x6f7420656c62616e,%rax
  402ca8:	20 74 6f 
  402cab:	48 89 45 08          	mov    %rax,0x8(%rbp)
  402caf:	48 b8 20 63 6f 6e 6e 	movabs $0x7463656e6e6f6320,%rax
  402cb6:	65 63 74 
  402cb9:	48 89 45 10          	mov    %rax,0x10(%rbp)
  402cbd:	48 b8 20 74 6f 20 73 	movabs $0x76726573206f7420,%rax
  402cc4:	65 72 76 
  402cc7:	48 89 45 18          	mov    %rax,0x18(%rbp)
  402ccb:	66 c7 45 20 65 72    	movw   $0x7265,0x20(%rbp)
  402cd1:	c6 45 22 00          	movb   $0x0,0x22(%rbp)
  402cd5:	89 df                	mov    %ebx,%edi
  402cd7:	e8 b4 df ff ff       	callq  400c90 <close@plt>
  402cdc:	b8 ff ff ff ff       	mov    $0xffffffff,%eax
  402ce1:	e9 f0 fe ff ff       	jmpq   402bd6 <init_driver+0xcb>

0000000000402ce6 <driver_post>:
  402ce6:	53                   	push   %rbx
  402ce7:	4c 89 cb             	mov    %r9,%rbx
  402cea:	45 85 c0             	test   %r8d,%r8d
  402ced:	75 18                	jne    402d07 <driver_post+0x21>
  402cef:	48 85 ff             	test   %rdi,%rdi
  402cf2:	74 05                	je     402cf9 <driver_post+0x13>
  402cf4:	80 3f 00             	cmpb   $0x0,(%rdi)
  402cf7:	75 32                	jne    402d2b <driver_post+0x45>
  402cf9:	66 c7 03 4f 4b       	movw   $0x4b4f,(%rbx)
  402cfe:	c6 43 02 00          	movb   $0x0,0x2(%rbx)
  402d02:	44 89 c0             	mov    %r8d,%eax
  402d05:	5b                   	pop    %rbx
  402d06:	c3                   	retq   
  402d07:	48 89 ce             	mov    %rcx,%rsi
  402d0a:	48 8d 3d a2 08 00 00 	lea    0x8a2(%rip),%rdi        # 4035b3 <trans_char+0xd3>
  402d11:	b8 00 00 00 00       	mov    $0x0,%eax
  402d16:	e8 45 df ff ff       	callq  400c60 <printf@plt>
  402d1b:	66 c7 03 4f 4b       	movw   $0x4b4f,(%rbx)
  402d20:	c6 43 02 00          	movb   $0x0,0x2(%rbx)
  402d24:	b8 00 00 00 00       	mov    $0x0,%eax
  402d29:	eb da                	jmp    402d05 <driver_post+0x1f>
  402d2b:	48 83 ec 08          	sub    $0x8,%rsp
  402d2f:	41 51                	push   %r9
  402d31:	49 89 c9             	mov    %rcx,%r9
  402d34:	49 89 d0             	mov    %rdx,%r8
  402d37:	48 89 f9             	mov    %rdi,%rcx
  402d3a:	48 89 f2             	mov    %rsi,%rdx
  402d3d:	be a4 3c 00 00       	mov    $0x3ca4,%esi
  402d42:	48 8d 3d 5c 08 00 00 	lea    0x85c(%rip),%rdi        # 4035a5 <trans_char+0xc5>
  402d49:	e8 16 f6 ff ff       	callq  402364 <submitr>
  402d4e:	48 83 c4 10          	add    $0x10,%rsp
  402d52:	eb b1                	jmp    402d05 <driver_post+0x1f>

0000000000402d54 <check>:
  402d54:	89 f8                	mov    %edi,%eax
  402d56:	c1 e8 1c             	shr    $0x1c,%eax
  402d59:	85 c0                	test   %eax,%eax
  402d5b:	74 1d                	je     402d7a <check+0x26>
  402d5d:	b9 00 00 00 00       	mov    $0x0,%ecx
  402d62:	83 f9 1f             	cmp    $0x1f,%ecx
  402d65:	7f 0d                	jg     402d74 <check+0x20>
  402d67:	89 f8                	mov    %edi,%eax
  402d69:	d3 e8                	shr    %cl,%eax
  402d6b:	3c 0a                	cmp    $0xa,%al
  402d6d:	74 11                	je     402d80 <check+0x2c>
  402d6f:	83 c1 08             	add    $0x8,%ecx
  402d72:	eb ee                	jmp    402d62 <check+0xe>
  402d74:	b8 01 00 00 00       	mov    $0x1,%eax
  402d79:	c3                   	retq   
  402d7a:	b8 00 00 00 00       	mov    $0x0,%eax
  402d7f:	c3                   	retq   
  402d80:	b8 00 00 00 00       	mov    $0x0,%eax
  402d85:	c3                   	retq   

0000000000402d86 <gencookie>:
  402d86:	53                   	push   %rbx
  402d87:	83 c7 01             	add    $0x1,%edi
  402d8a:	e8 71 de ff ff       	callq  400c00 <srandom@plt>
  402d8f:	e8 7c df ff ff       	callq  400d10 <random@plt>
  402d94:	89 c3                	mov    %eax,%ebx
  402d96:	89 c7                	mov    %eax,%edi
  402d98:	e8 b7 ff ff ff       	callq  402d54 <check>
  402d9d:	85 c0                	test   %eax,%eax
  402d9f:	74 ee                	je     402d8f <gencookie+0x9>
  402da1:	89 d8                	mov    %ebx,%eax
  402da3:	5b                   	pop    %rbx
  402da4:	c3                   	retq   
  402da5:	66 2e 0f 1f 84 00 00 	nopw   %cs:0x0(%rax,%rax,1)
  402dac:	00 00 00 
  402daf:	90                   	nop

0000000000402db0 <__libc_csu_init>:
  402db0:	41 57                	push   %r15
  402db2:	41 56                	push   %r14
  402db4:	41 89 ff             	mov    %edi,%r15d
  402db7:	41 55                	push   %r13
  402db9:	41 54                	push   %r12
  402dbb:	4c 8d 25 46 20 20 00 	lea    0x202046(%rip),%r12        # 604e08 <__frame_dummy_init_array_entry>
  402dc2:	55                   	push   %rbp
  402dc3:	48 8d 2d 46 20 20 00 	lea    0x202046(%rip),%rbp        # 604e10 <__init_array_end>
  402dca:	53                   	push   %rbx
  402dcb:	49 89 f6             	mov    %rsi,%r14
  402dce:	49 89 d5             	mov    %rdx,%r13
  402dd1:	4c 29 e5             	sub    %r12,%rbp
  402dd4:	48 83 ec 08          	sub    $0x8,%rsp
  402dd8:	48 c1 fd 03          	sar    $0x3,%rbp
  402ddc:	e8 cf dd ff ff       	callq  400bb0 <_init>
  402de1:	48 85 ed             	test   %rbp,%rbp
  402de4:	74 20                	je     402e06 <__libc_csu_init+0x56>
  402de6:	31 db                	xor    %ebx,%ebx
  402de8:	0f 1f 84 00 00 00 00 	nopl   0x0(%rax,%rax,1)
  402def:	00 
  402df0:	4c 89 ea             	mov    %r13,%rdx
  402df3:	4c 89 f6             	mov    %r14,%rsi
  402df6:	44 89 ff             	mov    %r15d,%edi
  402df9:	41 ff 14 dc          	callq  *(%r12,%rbx,8)
  402dfd:	48 83 c3 01          	add    $0x1,%rbx
  402e01:	48 39 dd             	cmp    %rbx,%rbp
  402e04:	75 ea                	jne    402df0 <__libc_csu_init+0x40>
  402e06:	48 83 c4 08          	add    $0x8,%rsp
  402e0a:	5b                   	pop    %rbx
  402e0b:	5d                   	pop    %rbp
  402e0c:	41 5c                	pop    %r12
  402e0e:	41 5d                	pop    %r13
  402e10:	41 5e                	pop    %r14
  402e12:	41 5f                	pop    %r15
  402e14:	c3                   	retq   
  402e15:	90                   	nop
  402e16:	66 2e 0f 1f 84 00 00 	nopw   %cs:0x0(%rax,%rax,1)
  402e1d:	00 00 00 

0000000000402e20 <__libc_csu_fini>:
  402e20:	f3 c3                	repz retq 

Disassembly of section .fini:

0000000000402e24 <_fini>:
  402e24:	48 83 ec 08          	sub    $0x8,%rsp
  402e28:	48 83 c4 08          	add    $0x8,%rsp
  402e2c:	c3                   	retq   
